Certificate:
    Data:
        Version: 3 (0x2)
        Serial Number: 1 (0x1)
    Signature Algorithm: sha256WithRSAEncryption
        Issuer: C=TW, ST=TW, L=Taipei, O=ASRock Incorporation, OU=ASRock X10, CN=X10 IoT Router/name=OpenVPN/emailAddress=Asrock_tsd@asrock.com.tw
        Validity
            Not Before: Jul  5 02:28:31 2016 GMT
            Not After : Jul  3 02:28:31 2026 GMT
        Subject: C=TW, ST=TW, L=Taipei, O=ASRock Incorporation, OU=ASRock X10, CN=server/name=OpenVPN/emailAddress=Asrock_tsd@asrock.com.tw
        Subject Public Key Info:
            Public Key Algorithm: rsaEncryption
                Public-Key: (1024 bit)
                Modulus:
                    00:f7:ac:e0:32:37:45:5b:7a:0f:c6:3f:dc:04:1b:
                    3a:de:d4:03:e2:1c:96:9a:99:5b:ea:04:24:ad:2b:
                    0a:15:40:e3:1d:21:ca:e6:fb:f8:f8:63:76:2a:6a:
                    4d:cc:b8:3d:71:31:da:9d:6b:9f:78:99:3c:67:59:
                    13:2f:6e:26:25:58:b4:4c:41:90:28:a7:66:8c:25:
                    9f:45:05:0a:9a:0d:89:2a:08:f4:f4:c2:c6:e9:d8:
                    b6:21:28:ac:2e:26:e6:7f:63:54:26:e0:3b:ed:7c:
                    d9:8f:b4:83:b3:74:32:2b:fd:92:38:b7:98:37:5e:
                    9e:a4:3b:9b:69:1d:6a:06:1d
                Exponent: 65537 (0x10001)
        X509v3 extensions:
            X509v3 Basic Constraints: 
                CA:FALSE
            Netscape Cert Type: 
                SSL Server
            Netscape Comment: 
                Easy-RSA Generated Server Certificate
            X509v3 Subject Key Identifier: 
                91:E3:4D:7E:25:D8:93:EB:A7:AE:70:DE:FD:4C:AA:56:A8:BF:B4:22
            X509v3 Authority Key Identifier: 
                keyid:98:DE:B7:2C:A2:0A:E5:D2:53:6F:08:60:E8:49:44:28:53:A1:D6:71
                DirName:/C=TW/ST=TW/L=Taipei/O=ASRock Incorporation/OU=ASRock X10/CN=X10 IoT Router/name=OpenVPN/emailAddress=Asrock_tsd@asrock.com.tw
                serial:C7:07:FC:CF:A1:DC:42:3E

            X509v3 Extended Key Usage: 
                TLS Web Server Authentication
            X509v3 Key Usage: 
                Digital Signature, Key Encipherment
    Signature Algorithm: sha256WithRSAEncryption
         a6:57:09:cb:46:5b:cf:40:dc:3b:34:33:08:d1:5b:20:0e:f4:
         4b:1d:1d:6b:e9:e2:de:96:f9:20:96:7a:c4:44:ba:d7:57:bd:
         29:8a:d1:ca:2d:1f:64:a8:2c:0e:50:80:9f:7a:0f:59:cc:68:
         c7:aa:e3:9f:0b:a5:bd:65:e0:a2:29:aa:a4:f1:6c:93:a6:f1:
         9b:4d:3a:4d:f3:d0:27:0d:5a:36:75:30:93:04:1a:cc:4a:32:
         b4:6f:54:00:9a:9f:9d:88:8f:17:c6:bd:22:f3:e8:d3:55:e9:
         4e:79:b0:58:de:64:c1:e0:ad:0e:db:57:fb:97:e9:67:31:e7:
         40:c4
-----BEGIN CERTIFICATE-----
MIIEXDCCA8WgAwIBAgIBATANBgkqhkiG9w0BAQsFADCBszELMAkGA1UEBhMCVFcx
CzAJBgNVBAgTAlRXMQ8wDQYDVQQHEwZUYWlwZWkxHTAbBgNVBAoTFEFTUm9jayBJ
bmNvcnBvcmF0aW9uMRMwEQYDVQQLEwpBU1JvY2sgWDEwMRcwFQYDVQQDEw5YMTAg
SW9UIFJvdXRlcjEQMA4GA1UEKRMHT3BlblZQTjEnMCUGCSqGSIb3DQEJARYYQXNy
b2NrX3RzZEBhc3JvY2suY29tLnR3MB4XDTE2MDcwNTAyMjgzMVoXDTI2MDcwMzAy
MjgzMVowgasxCzAJBgNVBAYTAlRXMQswCQYDVQQIEwJUVzEPMA0GA1UEBxMGVGFp
cGVpMR0wGwYDVQQKExRBU1JvY2sgSW5jb3Jwb3JhdGlvbjETMBEGA1UECxMKQVNS
b2NrIFgxMDEPMA0GA1UEAxMGc2VydmVyMRAwDgYDVQQpEwdPcGVuVlBOMScwJQYJ
KoZIhvcNAQkBFhhBc3JvY2tfdHNkQGFzcm9jay5jb20udHcwgZ8wDQYJKoZIhvcN
AQEBBQADgY0AMIGJAoGBAPes4DI3RVt6D8Y/3AQbOt7UA+IclpqZW+oEJK0rChVA
4x0hyub7+PhjdipqTcy4PXEx2p1rn3iZPGdZEy9uJiVYtExBkCinZowln0UFCpoN
iSoI9PTCxunYtiEorC4m5n9jVCbgO+182Y+0g7N0Miv9kji3mDdenqQ7m2kdagYd
AgMBAAGjggGEMIIBgDAJBgNVHRMEAjAAMBEGCWCGSAGG+EIBAQQEAwIGQDA0Bglg
hkgBhvhCAQ0EJxYlRWFzeS1SU0EgR2VuZXJhdGVkIFNlcnZlciBDZXJ0aWZpY2F0
ZTAdBgNVHQ4EFgQUkeNNfiXYk+unrnDe/UyqVqi/tCIwgegGA1UdIwSB4DCB3YAU
mN63LKIK5dJTbwhg6ElEKFOh1nGhgbmkgbYwgbMxCzAJBgNVBAYTAlRXMQswCQYD
VQQIEwJUVzEPMA0GA1UEBxMGVGFpcGVpMR0wGwYDVQQKExRBU1JvY2sgSW5jb3Jw
b3JhdGlvbjETMBEGA1UECxMKQVNSb2NrIFgxMDEXMBUGA1UEAxMOWDEwIElvVCBS
b3V0ZXIxEDAOBgNVBCkTB09wZW5WUE4xJzAlBgkqhkiG9w0BCQEWGEFzcm9ja190
c2RAYXNyb2NrLmNvbS50d4IJAMcH/M+h3EI+MBMGA1UdJQQMMAoGCCsGAQUFBwMB
MAsGA1UdDwQEAwIFoDANBgkqhkiG9w0BAQsFAAOBgQCmVwnLRlvPQNw7NDMI0Vsg
DvRLHR1r6eLelvkglnrERLrXV70pitHKLR9kqCwOUICfeg9ZzGjHquOfC6W9ZeCi
Kaqk8WyTpvGbTTpN89AnDVo2dTCTBBrMSjK0b1QAmp+diI8Xxr0i8+jTVelOebBY
3mTB4K0O21f7l+lnMedAxA==
-----END CERTIFICATE-----
