Certificate:
    Data:
        Version: 3 (0x2)
        Serial Number: 1 (0x1)
    Signature Algorithm: sha256WithRSAEncryption
        Issuer: C=TW, ST=TW, L=Taipei, O=ASRock Incorporation, OU=ASRock X10, CN=X10 IoT Router/name=OpenVPN/emailAddress=Asrock_tsd@asrock.com.tw
        Validity
            Not Before: Jul 12 02:29:46 2016 GMT
            Not After : Jul 10 02:29:46 2026 GMT
        Subject: C=TW, ST=TW, L=Taipei, O=ASRock Incorporation, OU=ASRock X10, CN=server/name=OpenVPN/emailAddress=Asrock_tsd@asrock.com.tw
        Subject Public Key Info:
            Public Key Algorithm: rsaEncryption
                Public-Key: (1024 bit)
                Modulus:
                    00:ad:62:0a:b0:8c:d4:93:f7:04:57:d9:7a:3a:6b:
                    13:f6:a6:59:7e:82:b6:e4:66:b7:1d:ba:9a:82:20:
                    17:60:a5:ce:d6:13:db:aa:5e:47:eb:35:e0:e6:12:
                    0b:23:30:e2:89:3e:a4:19:a0:21:36:ca:65:4e:7d:
                    04:2d:83:d7:a1:91:08:be:9c:4f:1a:0e:65:c7:0a:
                    d5:21:2e:09:06:ee:f6:42:b9:e9:df:2c:2c:b1:be:
                    7b:3f:45:88:9c:eb:c0:ca:45:f3:b0:ad:9d:27:fa:
                    bf:71:7b:99:d3:e4:a2:a8:16:a8:99:00:bf:46:a4:
                    1b:e8:42:2c:1a:47:fe:4b:8b
                Exponent: 65537 (0x10001)
        X509v3 extensions:
            X509v3 Basic Constraints: 
                CA:FALSE
            Netscape Cert Type: 
                SSL Server
            Netscape Comment: 
                Easy-RSA Generated Server Certificate
            X509v3 Subject Key Identifier: 
                E8:1E:1B:27:46:81:1D:03:72:44:2E:A2:42:A7:DD:CB:7E:98:F9:B6
            X509v3 Authority Key Identifier: 
                keyid:86:63:0E:B0:1F:1C:30:86:8F:B9:F3:7A:61:DC:68:1B:00:9A:D0:8B
                DirName:/C=TW/ST=TW/L=Taipei/O=ASRock Incorporation/OU=ASRock X10/CN=X10 IoT Router/name=OpenVPN/emailAddress=Asrock_tsd@asrock.com.tw
                serial:C5:3F:3B:56:20:71:0F:30

            X509v3 Extended Key Usage: 
                TLS Web Server Authentication
            X509v3 Key Usage: 
                Digital Signature, Key Encipherment
    Signature Algorithm: sha256WithRSAEncryption
         2c:5c:c2:55:7e:52:ff:41:84:3c:7e:f9:a5:0f:a4:a1:a1:64:
         ac:76:7d:f9:87:55:0a:68:0e:ec:8a:80:b4:dd:62:c4:2d:d2:
         00:1c:88:5b:53:65:8f:ad:ff:20:51:b4:97:0b:56:e4:29:a0:
         6b:7a:3f:3e:a3:08:44:1f:af:97:7c:b8:d0:47:cc:ac:99:98:
         7b:22:d6:41:51:8c:60:2b:93:04:fc:d1:58:6d:fb:3d:fd:07:
         ae:3c:48:92:c8:32:88:5f:5c:d9:3e:2d:14:a8:57:4e:f9:fc:
         2f:6a:8c:41:51:aa:93:dd:13:a0:3e:92:64:6c:24:4c:6f:6b:
         ef:ea
-----BEGIN CERTIFICATE-----
MIIEXDCCA8WgAwIBAgIBATANBgkqhkiG9w0BAQsFADCBszELMAkGA1UEBhMCVFcx
CzAJBgNVBAgTAlRXMQ8wDQYDVQQHEwZUYWlwZWkxHTAbBgNVBAoTFEFTUm9jayBJ
bmNvcnBvcmF0aW9uMRMwEQYDVQQLEwpBU1JvY2sgWDEwMRcwFQYDVQQDEw5YMTAg
SW9UIFJvdXRlcjEQMA4GA1UEKRMHT3BlblZQTjEnMCUGCSqGSIb3DQEJARYYQXNy
b2NrX3RzZEBhc3JvY2suY29tLnR3MB4XDTE2MDcxMjAyMjk0NloXDTI2MDcxMDAy
Mjk0NlowgasxCzAJBgNVBAYTAlRXMQswCQYDVQQIEwJUVzEPMA0GA1UEBxMGVGFp
cGVpMR0wGwYDVQQKExRBU1JvY2sgSW5jb3Jwb3JhdGlvbjETMBEGA1UECxMKQVNS
b2NrIFgxMDEPMA0GA1UEAxMGc2VydmVyMRAwDgYDVQQpEwdPcGVuVlBOMScwJQYJ
KoZIhvcNAQkBFhhBc3JvY2tfdHNkQGFzcm9jay5jb20udHcwgZ8wDQYJKoZIhvcN
AQEBBQADgY0AMIGJAoGBAK1iCrCM1JP3BFfZejprE/amWX6CtuRmtx26moIgF2Cl
ztYT26peR+s14OYSCyMw4ok+pBmgITbKZU59BC2D16GRCL6cTxoOZccK1SEuCQbu
9kK56d8sLLG+ez9FiJzrwMpF87CtnSf6v3F7mdPkoqgWqJkAv0akG+hCLBpH/kuL
AgMBAAGjggGEMIIBgDAJBgNVHRMEAjAAMBEGCWCGSAGG+EIBAQQEAwIGQDA0Bglg
hkgBhvhCAQ0EJxYlRWFzeS1SU0EgR2VuZXJhdGVkIFNlcnZlciBDZXJ0aWZpY2F0
ZTAdBgNVHQ4EFgQU6B4bJ0aBHQNyRC6iQqfdy36Y+bYwgegGA1UdIwSB4DCB3YAU
hmMOsB8cMIaPufN6YdxoGwCa0IuhgbmkgbYwgbMxCzAJBgNVBAYTAlRXMQswCQYD
VQQIEwJUVzEPMA0GA1UEBxMGVGFpcGVpMR0wGwYDVQQKExRBU1JvY2sgSW5jb3Jw
b3JhdGlvbjETMBEGA1UECxMKQVNSb2NrIFgxMDEXMBUGA1UEAxMOWDEwIElvVCBS
b3V0ZXIxEDAOBgNVBCkTB09wZW5WUE4xJzAlBgkqhkiG9w0BCQEWGEFzcm9ja190
c2RAYXNyb2NrLmNvbS50d4IJAMU/O1YgcQ8wMBMGA1UdJQQMMAoGCCsGAQUFBwMB
MAsGA1UdDwQEAwIFoDANBgkqhkiG9w0BAQsFAAOBgQAsXMJVflL/QYQ8fvmlD6Sh
oWSsdn35h1UKaA7sioC03WLELdIAHIhbU2WPrf8gUbSXC1bkKaBrej8+owhEH6+X
fLjQR8ysmZh7ItZBUYxgK5ME/NFYbfs9/QeuPEiSyDKIX1zZPi0UqFdO+fwvaoxB
UaqT3ROgPpJkbCRMb2vv6g==
-----END CERTIFICATE-----
