Certificate:
    Data:
        Version: 3 (0x2)
        Serial Number: 1 (0x1)
    Signature Algorithm: sha256WithRSAEncryption
        Issuer: C=TW, ST=TW, L=Taipei, O=ASRock Incorporation, OU=ASRock X10, CN=X10 IoT Router/name=OpenVPN/emailAddress=Asrock_tsd@asrock.com.tw
        Validity
            Not Before: Jul 14 02:36:10 2016 GMT
            Not After : Jul 12 02:36:10 2026 GMT
        Subject: C=TW, ST=TW, L=Taipei, O=ASRock Incorporation, OU=ASRock X10, CN=server/name=OpenVPN/emailAddress=Asrock_tsd@asrock.com.tw
        Subject Public Key Info:
            Public Key Algorithm: rsaEncryption
                Public-Key: (1024 bit)
                Modulus:
                    00:ae:4e:28:d5:39:ea:a9:15:e7:5d:89:1a:45:2c:
                    67:43:ff:30:4c:f6:ca:6a:fe:28:64:53:de:1c:81:
                    92:e6:00:98:84:cc:a3:6e:e3:7a:c8:e7:5c:cf:9f:
                    8f:d3:a8:31:0f:93:4c:6e:13:4b:0f:0b:f8:ee:2e:
                    79:dd:86:f7:5b:d7:af:78:bc:a3:85:ea:9c:10:13:
                    01:d6:2a:46:4e:5a:7f:0a:ec:25:fd:0c:fd:95:37:
                    85:c0:3e:6e:56:58:0f:5c:6e:a8:5d:4d:5d:a0:5b:
                    9b:e0:d7:6e:4f:0b:fa:6f:c3:90:5a:76:51:2b:fa:
                    fb:7e:54:bd:c0:5d:65:24:c3
                Exponent: 65537 (0x10001)
        X509v3 extensions:
            X509v3 Basic Constraints: 
                CA:FALSE
            Netscape Cert Type: 
                SSL Server
            Netscape Comment: 
                Easy-RSA Generated Server Certificate
            X509v3 Subject Key Identifier: 
                6A:42:DB:BC:71:45:8C:12:88:9E:28:23:42:ED:E5:1F:E5:51:DA:03
            X509v3 Authority Key Identifier: 
                keyid:2B:D5:9E:39:22:4F:EB:CB:08:0E:04:46:BA:0B:E2:29:60:8D:60:C2
                DirName:/C=TW/ST=TW/L=Taipei/O=ASRock Incorporation/OU=ASRock X10/CN=X10 IoT Router/name=OpenVPN/emailAddress=Asrock_tsd@asrock.com.tw
                serial:D7:61:1D:B6:E8:EF:CC:9A

            X509v3 Extended Key Usage: 
                TLS Web Server Authentication
            X509v3 Key Usage: 
                Digital Signature, Key Encipherment
    Signature Algorithm: sha256WithRSAEncryption
         81:6d:94:15:19:a7:d6:6b:aa:6e:b2:7c:f6:34:39:a0:9d:68:
         36:a8:09:ab:81:5d:9e:03:33:c3:20:5b:c4:7c:54:ab:b2:5c:
         8b:08:4d:1f:d3:94:5b:22:d7:d2:f3:93:f1:86:c3:23:10:48:
         8b:5c:f4:81:91:dc:d1:74:d0:24:7e:be:50:1b:fe:53:97:4a:
         16:f8:60:b7:89:e1:86:99:35:e6:b6:72:d0:33:95:42:8f:8e:
         32:0a:64:40:2b:88:25:24:31:da:9d:da:a3:cc:50:a2:10:d0:
         fd:66:b1:43:db:c6:fd:d5:19:0c:8f:e3:b4:1a:08:22:99:af:
         5b:11
-----BEGIN CERTIFICATE-----
MIIEXDCCA8WgAwIBAgIBATANBgkqhkiG9w0BAQsFADCBszELMAkGA1UEBhMCVFcx
CzAJBgNVBAgTAlRXMQ8wDQYDVQQHEwZUYWlwZWkxHTAbBgNVBAoTFEFTUm9jayBJ
bmNvcnBvcmF0aW9uMRMwEQYDVQQLEwpBU1JvY2sgWDEwMRcwFQYDVQQDEw5YMTAg
SW9UIFJvdXRlcjEQMA4GA1UEKRMHT3BlblZQTjEnMCUGCSqGSIb3DQEJARYYQXNy
b2NrX3RzZEBhc3JvY2suY29tLnR3MB4XDTE2MDcxNDAyMzYxMFoXDTI2MDcxMjAy
MzYxMFowgasxCzAJBgNVBAYTAlRXMQswCQYDVQQIEwJUVzEPMA0GA1UEBxMGVGFp
cGVpMR0wGwYDVQQKExRBU1JvY2sgSW5jb3Jwb3JhdGlvbjETMBEGA1UECxMKQVNS
b2NrIFgxMDEPMA0GA1UEAxMGc2VydmVyMRAwDgYDVQQpEwdPcGVuVlBOMScwJQYJ
KoZIhvcNAQkBFhhBc3JvY2tfdHNkQGFzcm9jay5jb20udHcwgZ8wDQYJKoZIhvcN
AQEBBQADgY0AMIGJAoGBAK5OKNU56qkV512JGkUsZ0P/MEz2ymr+KGRT3hyBkuYA
mITMo27jesjnXM+fj9OoMQ+TTG4TSw8L+O4ued2G91vXr3i8o4XqnBATAdYqRk5a
fwrsJf0M/ZU3hcA+blZYD1xuqF1NXaBbm+DXbk8L+m/DkFp2USv6+35UvcBdZSTD
AgMBAAGjggGEMIIBgDAJBgNVHRMEAjAAMBEGCWCGSAGG+EIBAQQEAwIGQDA0Bglg
hkgBhvhCAQ0EJxYlRWFzeS1SU0EgR2VuZXJhdGVkIFNlcnZlciBDZXJ0aWZpY2F0
ZTAdBgNVHQ4EFgQUakLbvHFFjBKInigjQu3lH+VR2gMwgegGA1UdIwSB4DCB3YAU
K9WeOSJP68sIDgRGugviKWCNYMKhgbmkgbYwgbMxCzAJBgNVBAYTAlRXMQswCQYD
VQQIEwJUVzEPMA0GA1UEBxMGVGFpcGVpMR0wGwYDVQQKExRBU1JvY2sgSW5jb3Jw
b3JhdGlvbjETMBEGA1UECxMKQVNSb2NrIFgxMDEXMBUGA1UEAxMOWDEwIElvVCBS
b3V0ZXIxEDAOBgNVBCkTB09wZW5WUE4xJzAlBgkqhkiG9w0BCQEWGEFzcm9ja190
c2RAYXNyb2NrLmNvbS50d4IJANdhHbbo78yaMBMGA1UdJQQMMAoGCCsGAQUFBwMB
MAsGA1UdDwQEAwIFoDANBgkqhkiG9w0BAQsFAAOBgQCBbZQVGafWa6pusnz2NDmg
nWg2qAmrgV2eAzPDIFvEfFSrslyLCE0f05RbItfS85PxhsMjEEiLXPSBkdzRdNAk
fr5QG/5Tl0oW+GC3ieGGmTXmtnLQM5VCj44yCmRAK4glJDHandqjzFCiEND9ZrFD
28b91RkMj+O0Gggima9bEQ==
-----END CERTIFICATE-----
