Certificate:
    Data:
        Version: 3 (0x2)
        Serial Number: 1 (0x1)
    Signature Algorithm: sha256WithRSAEncryption
        Issuer: C=TW, ST=TW, L=Taipei, O=ASRock Incorporation, OU=ASRock X10, CN=X10 IoT Router/name=OpenVPN/emailAddress=Asrock_tsd@asrock.com.tw
        Validity
            Not Before: Jun 30 02:43:32 2016 GMT
            Not After : Jun 28 02:43:32 2026 GMT
        Subject: C=TW, ST=TW, L=Taipei, O=ASRock Incorporation, OU=ASRock X10, CN=server/name=OpenVPN/emailAddress=Asrock_tsd@asrock.com.tw
        Subject Public Key Info:
            Public Key Algorithm: rsaEncryption
                Public-Key: (1024 bit)
                Modulus:
                    00:af:b0:e3:3d:f2:dc:6d:95:0c:7a:10:8e:52:c9:
                    e4:c3:61:54:1c:42:6e:a8:87:89:2d:b5:ee:23:49:
                    47:47:2c:7d:49:17:33:26:93:c2:2a:83:39:d7:1f:
                    e3:0a:9a:11:44:91:37:c9:cc:2f:54:50:8f:57:0f:
                    26:b4:27:ea:55:9a:dd:14:4d:d5:b4:45:94:3f:db:
                    50:45:e8:57:c3:a2:8b:a2:00:3c:23:60:65:38:02:
                    e4:b6:8d:4a:e5:0c:34:b1:53:33:74:d2:92:60:de:
                    64:54:d6:3d:b3:08:24:bc:ee:d6:d1:de:5d:7e:0d:
                    93:0d:ed:54:e5:2e:a7:b8:e9
                Exponent: 65537 (0x10001)
        X509v3 extensions:
            X509v3 Basic Constraints: 
                CA:FALSE
            Netscape Cert Type: 
                SSL Server
            Netscape Comment: 
                Easy-RSA Generated Server Certificate
            X509v3 Subject Key Identifier: 
                20:98:92:D6:4F:E7:A0:61:FE:96:47:6C:E1:F1:EF:C5:C4:FE:BE:F0
            X509v3 Authority Key Identifier: 
                keyid:E8:C3:41:ED:3B:F2:87:2A:B3:D5:54:1A:8C:D9:B8:4D:F6:A2:8A:40
                DirName:/C=TW/ST=TW/L=Taipei/O=ASRock Incorporation/OU=ASRock X10/CN=X10 IoT Router/name=OpenVPN/emailAddress=Asrock_tsd@asrock.com.tw
                serial:A2:D8:58:68:0E:2B:1D:09

            X509v3 Extended Key Usage: 
                TLS Web Server Authentication
            X509v3 Key Usage: 
                Digital Signature, Key Encipherment
    Signature Algorithm: sha256WithRSAEncryption
         b3:c5:a9:f4:46:8c:42:b6:04:23:fc:55:3d:21:e7:a7:04:dd:
         c4:99:a4:06:3b:01:7c:41:75:c7:83:1b:2f:0e:fe:8c:22:39:
         2a:91:bb:9e:27:56:a3:90:ce:9f:9a:e0:11:dd:24:62:5c:ea:
         63:5e:fc:ad:f3:d4:17:7b:44:e1:d4:3d:a6:11:d4:37:bd:a2:
         5a:6f:b2:e0:48:44:59:d8:9e:d0:63:24:e3:69:07:7a:d5:b1:
         a1:84:8b:e3:ee:b2:97:c9:4e:3c:b0:d5:6c:d7:07:3e:df:d5:
         55:a5:cd:4e:cc:ff:e0:41:35:b9:d7:4e:ea:6f:c1:f5:7b:a1:
         64:71
-----BEGIN CERTIFICATE-----
MIIEXDCCA8WgAwIBAgIBATANBgkqhkiG9w0BAQsFADCBszELMAkGA1UEBhMCVFcx
CzAJBgNVBAgTAlRXMQ8wDQYDVQQHEwZUYWlwZWkxHTAbBgNVBAoTFEFTUm9jayBJ
bmNvcnBvcmF0aW9uMRMwEQYDVQQLEwpBU1JvY2sgWDEwMRcwFQYDVQQDEw5YMTAg
SW9UIFJvdXRlcjEQMA4GA1UEKRMHT3BlblZQTjEnMCUGCSqGSIb3DQEJARYYQXNy
b2NrX3RzZEBhc3JvY2suY29tLnR3MB4XDTE2MDYzMDAyNDMzMloXDTI2MDYyODAy
NDMzMlowgasxCzAJBgNVBAYTAlRXMQswCQYDVQQIEwJUVzEPMA0GA1UEBxMGVGFp
cGVpMR0wGwYDVQQKExRBU1JvY2sgSW5jb3Jwb3JhdGlvbjETMBEGA1UECxMKQVNS
b2NrIFgxMDEPMA0GA1UEAxMGc2VydmVyMRAwDgYDVQQpEwdPcGVuVlBOMScwJQYJ
KoZIhvcNAQkBFhhBc3JvY2tfdHNkQGFzcm9jay5jb20udHcwgZ8wDQYJKoZIhvcN
AQEBBQADgY0AMIGJAoGBAK+w4z3y3G2VDHoQjlLJ5MNhVBxCbqiHiS217iNJR0cs
fUkXMyaTwiqDOdcf4wqaEUSRN8nML1RQj1cPJrQn6lWa3RRN1bRFlD/bUEXoV8Oi
i6IAPCNgZTgC5LaNSuUMNLFTM3TSkmDeZFTWPbMIJLzu1tHeXX4Nkw3tVOUup7jp
AgMBAAGjggGEMIIBgDAJBgNVHRMEAjAAMBEGCWCGSAGG+EIBAQQEAwIGQDA0Bglg
hkgBhvhCAQ0EJxYlRWFzeS1SU0EgR2VuZXJhdGVkIFNlcnZlciBDZXJ0aWZpY2F0
ZTAdBgNVHQ4EFgQUIJiS1k/noGH+lkds4fHvxcT+vvAwgegGA1UdIwSB4DCB3YAU
6MNB7Tvyhyqz1VQajNm4TfaiikChgbmkgbYwgbMxCzAJBgNVBAYTAlRXMQswCQYD
VQQIEwJUVzEPMA0GA1UEBxMGVGFpcGVpMR0wGwYDVQQKExRBU1JvY2sgSW5jb3Jw
b3JhdGlvbjETMBEGA1UECxMKQVNSb2NrIFgxMDEXMBUGA1UEAxMOWDEwIElvVCBS
b3V0ZXIxEDAOBgNVBCkTB09wZW5WUE4xJzAlBgkqhkiG9w0BCQEWGEFzcm9ja190
c2RAYXNyb2NrLmNvbS50d4IJAKLYWGgOKx0JMBMGA1UdJQQMMAoGCCsGAQUFBwMB
MAsGA1UdDwQEAwIFoDANBgkqhkiG9w0BAQsFAAOBgQCzxan0RoxCtgQj/FU9Ieen
BN3EmaQGOwF8QXXHgxsvDv6MIjkqkbueJ1ajkM6fmuAR3SRiXOpjXvyt89QXe0Th
1D2mEdQ3vaJab7LgSERZ2J7QYyTjaQd61bGhhIvj7rKXyU48sNVs1wc+39VVpc1O
zP/gQTW5107qb8H1e6FkcQ==
-----END CERTIFICATE-----
