Certificate:
    Data:
        Version: 3 (0x2)
        Serial Number: 2 (0x2)
    Signature Algorithm: sha256WithRSAEncryption
        Issuer: C=TW, ST=TW, L=Taipei, O=ASRock Incorporation, OU=ASRock X10, CN=X10 IoT Router/name=OpenVPN/emailAddress=Asrock_tsd@asrock.com.tw
        Validity
            Not Before: Jul 12 02:43:00 2016 GMT
            Not After : Jul 10 02:43:00 2026 GMT
        Subject: C=TW, ST=TW, L=Taipei, O=ASRock Incorporation, OU=ASRock X10, CN=client/name=OpenVPN/emailAddress=Asrock_tsd@asrock.com.tw
        Subject Public Key Info:
            Public Key Algorithm: rsaEncryption
                Public-Key: (1024 bit)
                Modulus:
                    00:b6:fe:5b:e3:a9:c2:4e:17:27:0d:38:ee:98:e3:
                    43:1d:24:43:03:b5:88:a2:68:58:2f:ec:48:61:14:
                    72:cc:03:62:d1:41:1f:1e:c5:a8:02:4c:91:ec:5b:
                    91:8b:2d:af:6a:ea:26:51:4b:7d:c9:7d:08:23:6c:
                    f9:e2:50:71:ef:fc:b9:6a:9a:1f:de:38:26:5b:5c:
                    d0:50:e1:86:d7:a8:05:4f:9e:d1:4e:5d:83:3c:8b:
                    71:e8:28:69:36:2d:9e:e2:9c:3e:87:18:2f:54:5b:
                    46:04:e5:cf:4a:a5:00:63:95:63:11:69:94:2d:3f:
                    79:5f:6d:44:e3:5a:b2:ae:87
                Exponent: 65537 (0x10001)
        X509v3 extensions:
            X509v3 Basic Constraints: 
                CA:FALSE
            Netscape Comment: 
                Easy-RSA Generated Certificate
            X509v3 Subject Key Identifier: 
                D3:36:42:C2:6D:2E:97:47:C9:15:82:88:12:09:4B:B9:50:82:96:C8
            X509v3 Authority Key Identifier: 
                keyid:88:33:26:6E:0C:09:93:35:F2:55:89:81:7C:D8:7C:A4:7A:D6:E2:C7
                DirName:/C=TW/ST=TW/L=Taipei/O=ASRock Incorporation/OU=ASRock X10/CN=X10 IoT Router/name=OpenVPN/emailAddress=Asrock_tsd@asrock.com.tw
                serial:89:55:28:DE:42:5B:12:54

            X509v3 Extended Key Usage: 
                TLS Web Client Authentication
            X509v3 Key Usage: 
                Digital Signature
    Signature Algorithm: sha256WithRSAEncryption
         03:8b:6c:11:08:39:f9:a7:62:42:a1:88:c4:96:20:0b:d3:e2:
         0b:10:50:b0:13:55:29:25:05:f1:06:ff:8a:40:9b:6e:3a:cc:
         f7:6e:de:ca:fd:b5:d1:02:e3:26:42:67:93:da:ad:c3:c0:d5:
         f3:b4:fa:e5:90:a2:42:61:44:7e:93:88:97:7d:ea:98:cc:08:
         74:d3:c3:01:73:c9:c8:ef:5b:4c:68:69:9b:ec:99:5b:61:c8:
         83:8e:57:dd:18:e2:c6:35:a4:b4:26:fe:be:45:1d:64:ce:76:
         b3:81:e8:94:14:d9:c3:94:37:38:97:bf:c9:1a:70:24:b3:6d:
         30:c7
-----BEGIN CERTIFICATE-----
MIIEQjCCA6ugAwIBAgIBAjANBgkqhkiG9w0BAQsFADCBszELMAkGA1UEBhMCVFcx
CzAJBgNVBAgTAlRXMQ8wDQYDVQQHEwZUYWlwZWkxHTAbBgNVBAoTFEFTUm9jayBJ
bmNvcnBvcmF0aW9uMRMwEQYDVQQLEwpBU1JvY2sgWDEwMRcwFQYDVQQDEw5YMTAg
SW9UIFJvdXRlcjEQMA4GA1UEKRMHT3BlblZQTjEnMCUGCSqGSIb3DQEJARYYQXNy
b2NrX3RzZEBhc3JvY2suY29tLnR3MB4XDTE2MDcxMjAyNDMwMFoXDTI2MDcxMDAy
NDMwMFowgasxCzAJBgNVBAYTAlRXMQswCQYDVQQIEwJUVzEPMA0GA1UEBxMGVGFp
cGVpMR0wGwYDVQQKExRBU1JvY2sgSW5jb3Jwb3JhdGlvbjETMBEGA1UECxMKQVNS
b2NrIFgxMDEPMA0GA1UEAxMGY2xpZW50MRAwDgYDVQQpEwdPcGVuVlBOMScwJQYJ
KoZIhvcNAQkBFhhBc3JvY2tfdHNkQGFzcm9jay5jb20udHcwgZ8wDQYJKoZIhvcN
AQEBBQADgY0AMIGJAoGBALb+W+Opwk4XJw047pjjQx0kQwO1iKJoWC/sSGEUcswD
YtFBHx7FqAJMkexbkYstr2rqJlFLfcl9CCNs+eJQce/8uWqaH944Jltc0FDhhteo
BU+e0U5dgzyLcegoaTYtnuKcPocYL1RbRgTlz0qlAGOVYxFplC0/eV9tRONasq6H
AgMBAAGjggFqMIIBZjAJBgNVHRMEAjAAMC0GCWCGSAGG+EIBDQQgFh5FYXN5LVJT
QSBHZW5lcmF0ZWQgQ2VydGlmaWNhdGUwHQYDVR0OBBYEFNM2QsJtLpdHyRWCiBIJ
S7lQgpbIMIHoBgNVHSMEgeAwgd2AFIgzJm4MCZM18lWJgXzYfKR61uLHoYG5pIG2
MIGzMQswCQYDVQQGEwJUVzELMAkGA1UECBMCVFcxDzANBgNVBAcTBlRhaXBlaTEd
MBsGA1UEChMUQVNSb2NrIEluY29ycG9yYXRpb24xEzARBgNVBAsTCkFTUm9jayBY
MTAxFzAVBgNVBAMTDlgxMCBJb1QgUm91dGVyMRAwDgYDVQQpEwdPcGVuVlBOMScw
JQYJKoZIhvcNAQkBFhhBc3JvY2tfdHNkQGFzcm9jay5jb20udHeCCQCJVSjeQlsS
VDATBgNVHSUEDDAKBggrBgEFBQcDAjALBgNVHQ8EBAMCB4AwDQYJKoZIhvcNAQEL
BQADgYEAA4tsEQg5+adiQqGIxJYgC9PiCxBQsBNVKSUF8Qb/ikCbbjrM927eyv21
0QLjJkJnk9qtw8DV87T65ZCiQmFEfpOIl33qmMwIdNPDAXPJyO9bTGhpm+yZW2HI
g45X3RjixjWktCb+vkUdZM52s4HolBTZw5Q3OJe/yRpwJLNtMMc=
-----END CERTIFICATE-----
