Certificate:
    Data:
        Version: 3 (0x2)
        Serial Number: 1 (0x1)
    Signature Algorithm: sha256WithRSAEncryption
        Issuer: C=TW, ST=TW, L=Taipei, O=ASRock Incorporation, OU=ASRock X10, CN=X10 IoT Router/name=OpenVPN/emailAddress=Asrock_tsd@asrock.com.tw
        Validity
            Not Before: Jul 12 02:42:49 2016 GMT
            Not After : Jul 10 02:42:49 2026 GMT
        Subject: C=TW, ST=TW, L=Taipei, O=ASRock Incorporation, OU=ASRock X10, CN=server/name=OpenVPN/emailAddress=Asrock_tsd@asrock.com.tw
        Subject Public Key Info:
            Public Key Algorithm: rsaEncryption
                Public-Key: (1024 bit)
                Modulus:
                    00:f3:4e:15:64:5d:e6:d6:2b:4a:f1:aa:26:2c:55:
                    40:d1:43:26:c3:05:da:f3:df:5b:6f:40:96:da:b8:
                    eb:f7:62:e3:91:61:05:b2:71:17:e3:74:ba:29:f6:
                    75:ff:b6:f5:f4:86:3c:50:83:bf:31:d4:aa:ef:f3:
                    66:73:e7:a6:7b:76:fe:b1:a3:ec:31:17:88:e9:b0:
                    d3:ec:98:50:a8:74:bc:8d:83:c5:d1:e3:1b:c4:bf:
                    18:36:17:d1:1e:45:05:fc:cd:41:ea:c1:85:ee:ac:
                    91:e6:cc:79:a7:39:a6:6d:fe:7e:a1:d3:75:26:d9:
                    bf:9d:78:ca:d2:9c:2b:de:e5
                Exponent: 65537 (0x10001)
        X509v3 extensions:
            X509v3 Basic Constraints: 
                CA:FALSE
            Netscape Cert Type: 
                SSL Server
            Netscape Comment: 
                Easy-RSA Generated Server Certificate
            X509v3 Subject Key Identifier: 
                1D:89:92:C6:61:3C:77:3B:7F:0C:15:91:2B:E1:E8:25:2E:EB:DF:33
            X509v3 Authority Key Identifier: 
                keyid:88:33:26:6E:0C:09:93:35:F2:55:89:81:7C:D8:7C:A4:7A:D6:E2:C7
                DirName:/C=TW/ST=TW/L=Taipei/O=ASRock Incorporation/OU=ASRock X10/CN=X10 IoT Router/name=OpenVPN/emailAddress=Asrock_tsd@asrock.com.tw
                serial:89:55:28:DE:42:5B:12:54

            X509v3 Extended Key Usage: 
                TLS Web Server Authentication
            X509v3 Key Usage: 
                Digital Signature, Key Encipherment
    Signature Algorithm: sha256WithRSAEncryption
         93:63:12:c4:5b:f3:82:fc:e6:9c:96:8c:d7:81:44:10:24:d1:
         01:ef:ad:78:51:63:20:81:51:34:55:d3:64:6b:33:15:6c:3b:
         17:68:cd:7f:be:11:c4:da:89:e0:e2:6b:30:33:8b:23:e4:1a:
         10:fa:20:16:50:63:ff:89:c4:f2:79:c2:f2:29:9c:16:08:f6:
         66:36:11:d4:04:d0:b6:14:99:1f:fc:4b:08:01:7d:db:d5:e3:
         61:05:3b:c9:df:e6:36:fa:6a:46:b9:f2:4a:63:bd:84:73:af:
         0f:ff:6b:a8:54:bc:15:02:dd:05:6d:6f:be:4f:ce:a7:2d:44:
         50:2d
-----BEGIN CERTIFICATE-----
MIIEXDCCA8WgAwIBAgIBATANBgkqhkiG9w0BAQsFADCBszELMAkGA1UEBhMCVFcx
CzAJBgNVBAgTAlRXMQ8wDQYDVQQHEwZUYWlwZWkxHTAbBgNVBAoTFEFTUm9jayBJ
bmNvcnBvcmF0aW9uMRMwEQYDVQQLEwpBU1JvY2sgWDEwMRcwFQYDVQQDEw5YMTAg
SW9UIFJvdXRlcjEQMA4GA1UEKRMHT3BlblZQTjEnMCUGCSqGSIb3DQEJARYYQXNy
b2NrX3RzZEBhc3JvY2suY29tLnR3MB4XDTE2MDcxMjAyNDI0OVoXDTI2MDcxMDAy
NDI0OVowgasxCzAJBgNVBAYTAlRXMQswCQYDVQQIEwJUVzEPMA0GA1UEBxMGVGFp
cGVpMR0wGwYDVQQKExRBU1JvY2sgSW5jb3Jwb3JhdGlvbjETMBEGA1UECxMKQVNS
b2NrIFgxMDEPMA0GA1UEAxMGc2VydmVyMRAwDgYDVQQpEwdPcGVuVlBOMScwJQYJ
KoZIhvcNAQkBFhhBc3JvY2tfdHNkQGFzcm9jay5jb20udHcwgZ8wDQYJKoZIhvcN
AQEBBQADgY0AMIGJAoGBAPNOFWRd5tYrSvGqJixVQNFDJsMF2vPfW29Altq46/di
45FhBbJxF+N0uin2df+29fSGPFCDvzHUqu/zZnPnpnt2/rGj7DEXiOmw0+yYUKh0
vI2DxdHjG8S/GDYX0R5FBfzNQerBhe6skebMeac5pm3+fqHTdSbZv514ytKcK97l
AgMBAAGjggGEMIIBgDAJBgNVHRMEAjAAMBEGCWCGSAGG+EIBAQQEAwIGQDA0Bglg
hkgBhvhCAQ0EJxYlRWFzeS1SU0EgR2VuZXJhdGVkIFNlcnZlciBDZXJ0aWZpY2F0
ZTAdBgNVHQ4EFgQUHYmSxmE8dzt/DBWRK+HoJS7r3zMwgegGA1UdIwSB4DCB3YAU
iDMmbgwJkzXyVYmBfNh8pHrW4sehgbmkgbYwgbMxCzAJBgNVBAYTAlRXMQswCQYD
VQQIEwJUVzEPMA0GA1UEBxMGVGFpcGVpMR0wGwYDVQQKExRBU1JvY2sgSW5jb3Jw
b3JhdGlvbjETMBEGA1UECxMKQVNSb2NrIFgxMDEXMBUGA1UEAxMOWDEwIElvVCBS
b3V0ZXIxEDAOBgNVBCkTB09wZW5WUE4xJzAlBgkqhkiG9w0BCQEWGEFzcm9ja190
c2RAYXNyb2NrLmNvbS50d4IJAIlVKN5CWxJUMBMGA1UdJQQMMAoGCCsGAQUFBwMB
MAsGA1UdDwQEAwIFoDANBgkqhkiG9w0BAQsFAAOBgQCTYxLEW/OC/OaclozXgUQQ
JNEB7614UWMggVE0VdNkazMVbDsXaM1/vhHE2ong4mswM4sj5BoQ+iAWUGP/icTy
ecLyKZwWCPZmNhHUBNC2FJkf/EsIAX3b1eNhBTvJ3+Y2+mpGufJKY72Ec68P/2uo
VLwVAt0FbW++T86nLURQLQ==
-----END CERTIFICATE-----
