Certificate:
    Data:
        Version: 3 (0x2)
        Serial Number: 1 (0x1)
    Signature Algorithm: sha256WithRSAEncryption
        Issuer: C=TW, ST=TW, L=Taipei, O=ASRock Incorporation, OU=ASRock X10, CN=X10 IoT Router/name=OpenVPN/emailAddress=Asrock_tsd@asrock.com.tw
        Validity
            Not Before: Jun 29 03:21:26 2016 GMT
            Not After : Jun 27 03:21:26 2026 GMT
        Subject: C=TW, ST=TW, L=Taipei, O=ASRock Incorporation, OU=ASRock X10, CN=server/name=OpenVPN/emailAddress=Asrock_tsd@asrock.com.tw
        Subject Public Key Info:
            Public Key Algorithm: rsaEncryption
                Public-Key: (1024 bit)
                Modulus:
                    00:a9:08:d3:c9:de:cd:20:a7:0b:e7:7f:30:aa:c7:
                    da:c2:54:69:e6:23:df:a7:7d:b1:66:5c:a8:f0:4b:
                    ce:c1:bc:6f:61:09:6f:3d:3c:92:3f:d7:a0:ee:14:
                    cc:77:99:a0:59:cc:bb:ec:71:fe:12:37:3f:f8:a2:
                    56:0e:c5:88:7e:07:88:f5:6c:38:22:e0:21:ff:a9:
                    52:09:e3:f9:98:5a:a5:46:47:b0:be:31:c2:9e:6a:
                    63:04:4f:ee:d3:57:4e:43:51:2c:fd:e9:e0:2b:ff:
                    fd:7c:b7:91:64:bf:d7:9f:fb:fb:6f:c3:d4:34:f8:
                    34:18:b1:0c:a9:bb:13:bd:f5
                Exponent: 65537 (0x10001)
        X509v3 extensions:
            X509v3 Basic Constraints: 
                CA:FALSE
            Netscape Cert Type: 
                SSL Server
            Netscape Comment: 
                Easy-RSA Generated Server Certificate
            X509v3 Subject Key Identifier: 
                33:6B:C1:1B:87:2A:59:9D:9D:0E:CB:1D:27:9C:6D:E8:59:55:2A:E8
            X509v3 Authority Key Identifier: 
                keyid:EE:B7:47:91:B9:25:5A:B7:8B:C6:CC:2F:6C:FC:71:D7:D4:1A:CC:29
                DirName:/C=TW/ST=TW/L=Taipei/O=ASRock Incorporation/OU=ASRock X10/CN=X10 IoT Router/name=OpenVPN/emailAddress=Asrock_tsd@asrock.com.tw
                serial:EB:72:B7:BA:6C:9E:65:07

            X509v3 Extended Key Usage: 
                TLS Web Server Authentication
            X509v3 Key Usage: 
                Digital Signature, Key Encipherment
    Signature Algorithm: sha256WithRSAEncryption
         5a:ba:52:b3:92:ff:6b:52:2c:9e:76:a3:31:01:26:19:5d:f0:
         1c:f4:7a:8e:4c:51:19:9d:8b:02:b7:fa:8b:44:a5:c0:71:9a:
         59:1d:ba:bb:65:a0:09:60:35:0b:d7:07:35:b2:fc:8d:8b:06:
         f6:fd:5a:b6:e8:56:34:b1:70:a0:e1:f4:34:5d:e9:e9:04:3b:
         58:0c:ed:b6:fa:80:bd:46:d5:43:02:fa:a0:d1:30:e0:4c:00:
         19:6d:a1:c1:a1:09:4c:bf:33:64:d7:a9:ee:77:ef:85:38:81:
         d7:f2:99:67:4e:c8:46:14:6d:78:9d:6e:14:69:cd:f6:2b:31:
         0c:92
-----BEGIN CERTIFICATE-----
MIIEXDCCA8WgAwIBAgIBATANBgkqhkiG9w0BAQsFADCBszELMAkGA1UEBhMCVFcx
CzAJBgNVBAgTAlRXMQ8wDQYDVQQHEwZUYWlwZWkxHTAbBgNVBAoTFEFTUm9jayBJ
bmNvcnBvcmF0aW9uMRMwEQYDVQQLEwpBU1JvY2sgWDEwMRcwFQYDVQQDEw5YMTAg
SW9UIFJvdXRlcjEQMA4GA1UEKRMHT3BlblZQTjEnMCUGCSqGSIb3DQEJARYYQXNy
b2NrX3RzZEBhc3JvY2suY29tLnR3MB4XDTE2MDYyOTAzMjEyNloXDTI2MDYyNzAz
MjEyNlowgasxCzAJBgNVBAYTAlRXMQswCQYDVQQIEwJUVzEPMA0GA1UEBxMGVGFp
cGVpMR0wGwYDVQQKExRBU1JvY2sgSW5jb3Jwb3JhdGlvbjETMBEGA1UECxMKQVNS
b2NrIFgxMDEPMA0GA1UEAxMGc2VydmVyMRAwDgYDVQQpEwdPcGVuVlBOMScwJQYJ
KoZIhvcNAQkBFhhBc3JvY2tfdHNkQGFzcm9jay5jb20udHcwgZ8wDQYJKoZIhvcN
AQEBBQADgY0AMIGJAoGBAKkI08nezSCnC+d/MKrH2sJUaeYj36d9sWZcqPBLzsG8
b2EJbz08kj/XoO4UzHeZoFnMu+xx/hI3P/iiVg7FiH4HiPVsOCLgIf+pUgnj+Zha
pUZHsL4xwp5qYwRP7tNXTkNRLP3p4Cv//Xy3kWS/15/7+2/D1DT4NBixDKm7E731
AgMBAAGjggGEMIIBgDAJBgNVHRMEAjAAMBEGCWCGSAGG+EIBAQQEAwIGQDA0Bglg
hkgBhvhCAQ0EJxYlRWFzeS1SU0EgR2VuZXJhdGVkIFNlcnZlciBDZXJ0aWZpY2F0
ZTAdBgNVHQ4EFgQUM2vBG4cqWZ2dDssdJ5xt6FlVKugwgegGA1UdIwSB4DCB3YAU
7rdHkbklWreLxswvbPxx19QazCmhgbmkgbYwgbMxCzAJBgNVBAYTAlRXMQswCQYD
VQQIEwJUVzEPMA0GA1UEBxMGVGFpcGVpMR0wGwYDVQQKExRBU1JvY2sgSW5jb3Jw
b3JhdGlvbjETMBEGA1UECxMKQVNSb2NrIFgxMDEXMBUGA1UEAxMOWDEwIElvVCBS
b3V0ZXIxEDAOBgNVBCkTB09wZW5WUE4xJzAlBgkqhkiG9w0BCQEWGEFzcm9ja190
c2RAYXNyb2NrLmNvbS50d4IJAOtyt7psnmUHMBMGA1UdJQQMMAoGCCsGAQUFBwMB
MAsGA1UdDwQEAwIFoDANBgkqhkiG9w0BAQsFAAOBgQBaulKzkv9rUiyedqMxASYZ
XfAc9HqOTFEZnYsCt/qLRKXAcZpZHbq7ZaAJYDUL1wc1svyNiwb2/Vq26FY0sXCg
4fQ0XenpBDtYDO22+oC9RtVDAvqg0TDgTAAZbaHBoQlMvzNk16nud++FOIHX8pln
TshGFG14nW4Uac32KzEMkg==
-----END CERTIFICATE-----
