Certificate:
    Data:
        Version: 3 (0x2)
        Serial Number: 1 (0x1)
    Signature Algorithm: sha256WithRSAEncryption
        Issuer: C=TW, ST=TW, L=Taipei, O=ASRock Incorporation, OU=ASRock X10, CN=X10 IoT Router/name=OpenVPN/emailAddress=Asrock_tsd@asrock.com.tw
        Validity
            Not Before: Jul 14 02:26:32 2016 GMT
            Not After : Jul 12 02:26:32 2026 GMT
        Subject: C=TW, ST=TW, L=Taipei, O=ASRock Incorporation, OU=ASRock X10, CN=server/name=OpenVPN/emailAddress=Asrock_tsd@asrock.com.tw
        Subject Public Key Info:
            Public Key Algorithm: rsaEncryption
                Public-Key: (1024 bit)
                Modulus:
                    00:ea:71:87:86:22:52:bf:05:6d:d8:d9:d8:e8:50:
                    93:52:62:7f:a4:ff:95:c6:5c:31:ac:ec:c7:8c:a9:
                    d2:28:5c:29:6e:18:23:37:98:89:fd:c2:9b:c1:ef:
                    99:f2:7f:9c:c7:91:dd:27:5b:58:59:46:f7:ec:6a:
                    50:50:87:64:de:eb:e1:76:c6:c6:49:d6:b8:ec:f7:
                    1f:1f:ef:13:ea:b5:68:86:8c:d5:96:b0:42:e6:cb:
                    60:a3:18:e6:04:ab:96:d9:1e:b3:ee:6c:f5:5b:70:
                    69:8d:07:fc:77:fc:27:d1:04:c9:85:fa:44:a5:8e:
                    8f:96:8d:be:a7:a3:98:fd:e3
                Exponent: 65537 (0x10001)
        X509v3 extensions:
            X509v3 Basic Constraints: 
                CA:FALSE
            Netscape Cert Type: 
                SSL Server
            Netscape Comment: 
                Easy-RSA Generated Server Certificate
            X509v3 Subject Key Identifier: 
                8A:7D:75:C9:F4:53:09:45:B5:09:69:7F:DC:9F:AE:6D:05:07:B5:71
            X509v3 Authority Key Identifier: 
                keyid:93:21:7C:B1:4A:30:48:B7:03:24:8C:EA:47:CA:D4:15:DB:51:58:7A
                DirName:/C=TW/ST=TW/L=Taipei/O=ASRock Incorporation/OU=ASRock X10/CN=X10 IoT Router/name=OpenVPN/emailAddress=Asrock_tsd@asrock.com.tw
                serial:D2:E8:3B:EA:E4:8E:E3:8C

            X509v3 Extended Key Usage: 
                TLS Web Server Authentication
            X509v3 Key Usage: 
                Digital Signature, Key Encipherment
    Signature Algorithm: sha256WithRSAEncryption
         9d:ba:5b:db:d1:f0:69:29:b7:80:75:c1:4a:e0:60:7c:0a:3d:
         1e:3a:88:d3:a9:3f:15:4b:48:17:e2:ad:29:98:12:68:4a:af:
         e9:7f:e4:c5:f1:a0:78:8f:c4:4b:11:8d:94:2d:e1:7f:82:5a:
         fc:79:8f:83:ac:5e:08:a2:90:b9:23:c7:a9:f1:5a:00:68:ec:
         3e:ff:bf:e9:be:cf:04:e5:c2:d5:10:5f:d0:b9:e6:9c:0a:ed:
         c5:20:92:1c:b5:55:a5:2a:4d:5f:f7:eb:13:ff:d0:ce:6f:df:
         66:74:fe:74:e4:52:70:a6:b6:bb:f1:32:05:35:cb:55:1d:cc:
         d2:0c
-----BEGIN CERTIFICATE-----
MIIEXDCCA8WgAwIBAgIBATANBgkqhkiG9w0BAQsFADCBszELMAkGA1UEBhMCVFcx
CzAJBgNVBAgTAlRXMQ8wDQYDVQQHEwZUYWlwZWkxHTAbBgNVBAoTFEFTUm9jayBJ
bmNvcnBvcmF0aW9uMRMwEQYDVQQLEwpBU1JvY2sgWDEwMRcwFQYDVQQDEw5YMTAg
SW9UIFJvdXRlcjEQMA4GA1UEKRMHT3BlblZQTjEnMCUGCSqGSIb3DQEJARYYQXNy
b2NrX3RzZEBhc3JvY2suY29tLnR3MB4XDTE2MDcxNDAyMjYzMloXDTI2MDcxMjAy
MjYzMlowgasxCzAJBgNVBAYTAlRXMQswCQYDVQQIEwJUVzEPMA0GA1UEBxMGVGFp
cGVpMR0wGwYDVQQKExRBU1JvY2sgSW5jb3Jwb3JhdGlvbjETMBEGA1UECxMKQVNS
b2NrIFgxMDEPMA0GA1UEAxMGc2VydmVyMRAwDgYDVQQpEwdPcGVuVlBOMScwJQYJ
KoZIhvcNAQkBFhhBc3JvY2tfdHNkQGFzcm9jay5jb20udHcwgZ8wDQYJKoZIhvcN
AQEBBQADgY0AMIGJAoGBAOpxh4YiUr8FbdjZ2OhQk1Jif6T/lcZcMazsx4yp0ihc
KW4YIzeYif3Cm8HvmfJ/nMeR3SdbWFlG9+xqUFCHZN7r4XbGxknWuOz3Hx/vE+q1
aIaM1ZawQubLYKMY5gSrltkes+5s9VtwaY0H/Hf8J9EEyYX6RKWOj5aNvqejmP3j
AgMBAAGjggGEMIIBgDAJBgNVHRMEAjAAMBEGCWCGSAGG+EIBAQQEAwIGQDA0Bglg
hkgBhvhCAQ0EJxYlRWFzeS1SU0EgR2VuZXJhdGVkIFNlcnZlciBDZXJ0aWZpY2F0
ZTAdBgNVHQ4EFgQUin11yfRTCUW1CWl/3J+ubQUHtXEwgegGA1UdIwSB4DCB3YAU
kyF8sUowSLcDJIzqR8rUFdtRWHqhgbmkgbYwgbMxCzAJBgNVBAYTAlRXMQswCQYD
VQQIEwJUVzEPMA0GA1UEBxMGVGFpcGVpMR0wGwYDVQQKExRBU1JvY2sgSW5jb3Jw
b3JhdGlvbjETMBEGA1UECxMKQVNSb2NrIFgxMDEXMBUGA1UEAxMOWDEwIElvVCBS
b3V0ZXIxEDAOBgNVBCkTB09wZW5WUE4xJzAlBgkqhkiG9w0BCQEWGEFzcm9ja190
c2RAYXNyb2NrLmNvbS50d4IJANLoO+rkjuOMMBMGA1UdJQQMMAoGCCsGAQUFBwMB
MAsGA1UdDwQEAwIFoDANBgkqhkiG9w0BAQsFAAOBgQCdulvb0fBpKbeAdcFK4GB8
Cj0eOojTqT8VS0gX4q0pmBJoSq/pf+TF8aB4j8RLEY2ULeF/glr8eY+DrF4IopC5
I8ep8VoAaOw+/7/pvs8E5cLVEF/QueacCu3FIJIctVWlKk1f9+sT/9DOb99mdP50
5FJwpra78TIFNctVHczSDA==
-----END CERTIFICATE-----
