Certificate:
    Data:
        Version: 3 (0x2)
        Serial Number: 1 (0x1)
    Signature Algorithm: sha256WithRSAEncryption
        Issuer: C=TW, ST=TW, L=Taipei, O=ASRock Incorporation, OU=ASRock X10, CN=X10 IoT Router/name=OpenVPN/emailAddress=Asrock_tsd@asrock.com.tw
        Validity
            Not Before: Jul 11 04:39:16 2016 GMT
            Not After : Jul  9 04:39:16 2026 GMT
        Subject: C=TW, ST=TW, L=Taipei, O=ASRock Incorporation, OU=ASRock X10, CN=server/name=OpenVPN/emailAddress=Asrock_tsd@asrock.com.tw
        Subject Public Key Info:
            Public Key Algorithm: rsaEncryption
                Public-Key: (1024 bit)
                Modulus:
                    00:ca:03:ca:a4:66:03:91:48:1c:f7:e8:07:a1:02:
                    19:90:87:c1:1a:0a:94:65:1b:fe:d0:c6:9f:9a:5d:
                    d3:ea:6a:dc:9e:d9:5f:72:3c:c6:66:ea:fc:7f:36:
                    c4:32:45:52:cd:da:5c:fb:da:37:5d:f0:78:db:09:
                    a1:31:58:ce:cd:75:fc:dc:a9:e6:4c:8e:d2:51:d5:
                    b9:cd:fa:3d:74:84:1e:63:9e:f4:3e:20:a0:66:c2:
                    a3:0c:2d:ac:b1:e9:66:24:7b:52:a9:c8:85:45:a9:
                    a2:34:69:5f:49:22:4c:38:6c:b5:8f:69:ca:31:c2:
                    12:ed:d0:80:10:09:7c:51:9d
                Exponent: 65537 (0x10001)
        X509v3 extensions:
            X509v3 Basic Constraints: 
                CA:FALSE
            Netscape Cert Type: 
                SSL Server
            Netscape Comment: 
                Easy-RSA Generated Server Certificate
            X509v3 Subject Key Identifier: 
                0E:9D:47:E2:A8:96:0C:7D:2E:79:39:2C:2C:79:DA:63:C9:F2:FA:16
            X509v3 Authority Key Identifier: 
                keyid:F8:C6:B5:1A:AE:A5:11:1F:AB:BC:31:80:83:B2:9F:1A:54:91:DE:16
                DirName:/C=TW/ST=TW/L=Taipei/O=ASRock Incorporation/OU=ASRock X10/CN=X10 IoT Router/name=OpenVPN/emailAddress=Asrock_tsd@asrock.com.tw
                serial:C3:0E:2A:45:27:9F:F1:DF

            X509v3 Extended Key Usage: 
                TLS Web Server Authentication
            X509v3 Key Usage: 
                Digital Signature, Key Encipherment
    Signature Algorithm: sha256WithRSAEncryption
         34:d3:72:44:ac:2f:ae:ea:48:5c:3c:9b:d8:f0:b5:5c:a7:1a:
         4a:de:36:44:f5:ad:6d:29:00:66:40:b3:50:f1:72:c1:73:8f:
         9d:cd:d3:b7:6e:13:22:73:bc:53:f2:62:44:ba:96:5c:ad:56:
         80:3e:c0:2a:29:41:e7:74:a4:b3:1f:1e:6f:e3:e2:8d:f1:5a:
         30:c3:16:05:d2:fd:82:46:b7:83:f7:4d:07:7b:d0:6d:be:19:
         b7:6f:3d:c7:b1:a1:8a:07:29:bf:a6:61:1f:60:db:29:4e:a5:
         d6:e5:00:f5:9f:1e:19:f4:a1:7c:e8:0e:1d:ae:28:08:f5:a4:
         3c:c2
-----BEGIN CERTIFICATE-----
MIIEXDCCA8WgAwIBAgIBATANBgkqhkiG9w0BAQsFADCBszELMAkGA1UEBhMCVFcx
CzAJBgNVBAgTAlRXMQ8wDQYDVQQHEwZUYWlwZWkxHTAbBgNVBAoTFEFTUm9jayBJ
bmNvcnBvcmF0aW9uMRMwEQYDVQQLEwpBU1JvY2sgWDEwMRcwFQYDVQQDEw5YMTAg
SW9UIFJvdXRlcjEQMA4GA1UEKRMHT3BlblZQTjEnMCUGCSqGSIb3DQEJARYYQXNy
b2NrX3RzZEBhc3JvY2suY29tLnR3MB4XDTE2MDcxMTA0MzkxNloXDTI2MDcwOTA0
MzkxNlowgasxCzAJBgNVBAYTAlRXMQswCQYDVQQIEwJUVzEPMA0GA1UEBxMGVGFp
cGVpMR0wGwYDVQQKExRBU1JvY2sgSW5jb3Jwb3JhdGlvbjETMBEGA1UECxMKQVNS
b2NrIFgxMDEPMA0GA1UEAxMGc2VydmVyMRAwDgYDVQQpEwdPcGVuVlBOMScwJQYJ
KoZIhvcNAQkBFhhBc3JvY2tfdHNkQGFzcm9jay5jb20udHcwgZ8wDQYJKoZIhvcN
AQEBBQADgY0AMIGJAoGBAMoDyqRmA5FIHPfoB6ECGZCHwRoKlGUb/tDGn5pd0+pq
3J7ZX3I8xmbq/H82xDJFUs3aXPvaN13weNsJoTFYzs11/Nyp5kyO0lHVuc36PXSE
HmOe9D4goGbCowwtrLHpZiR7UqnIhUWpojRpX0kiTDhstY9pyjHCEu3QgBAJfFGd
AgMBAAGjggGEMIIBgDAJBgNVHRMEAjAAMBEGCWCGSAGG+EIBAQQEAwIGQDA0Bglg
hkgBhvhCAQ0EJxYlRWFzeS1SU0EgR2VuZXJhdGVkIFNlcnZlciBDZXJ0aWZpY2F0
ZTAdBgNVHQ4EFgQUDp1H4qiWDH0ueTksLHnaY8ny+hYwgegGA1UdIwSB4DCB3YAU
+Ma1Gq6lER+rvDGAg7KfGlSR3hahgbmkgbYwgbMxCzAJBgNVBAYTAlRXMQswCQYD
VQQIEwJUVzEPMA0GA1UEBxMGVGFpcGVpMR0wGwYDVQQKExRBU1JvY2sgSW5jb3Jw
b3JhdGlvbjETMBEGA1UECxMKQVNSb2NrIFgxMDEXMBUGA1UEAxMOWDEwIElvVCBS
b3V0ZXIxEDAOBgNVBCkTB09wZW5WUE4xJzAlBgkqhkiG9w0BCQEWGEFzcm9ja190
c2RAYXNyb2NrLmNvbS50d4IJAMMOKkUnn/HfMBMGA1UdJQQMMAoGCCsGAQUFBwMB
MAsGA1UdDwQEAwIFoDANBgkqhkiG9w0BAQsFAAOBgQA003JErC+u6khcPJvY8LVc
pxpK3jZE9a1tKQBmQLNQ8XLBc4+dzdO3bhMic7xT8mJEupZcrVaAPsAqKUHndKSz
Hx5v4+KN8VowwxYF0v2CRreD900He9Btvhm3bz3HsaGKBym/pmEfYNspTqXW5QD1
nx4Z9KF86A4drigI9aQ8wg==
-----END CERTIFICATE-----
