Certificate:
    Data:
        Version: 3 (0x2)
        Serial Number: 1 (0x1)
    Signature Algorithm: sha256WithRSAEncryption
        Issuer: C=TW, ST=TW, L=Taipei, O=ASRock Incorporation, OU=ASRock X10, CN=X10 IoT Router/name=OpenVPN/emailAddress=Asrock_tsd@asrock.com.tw
        Validity
            Not Before: Jul 12 02:39:51 2016 GMT
            Not After : Jul 10 02:39:51 2026 GMT
        Subject: C=TW, ST=TW, L=Taipei, O=ASRock Incorporation, OU=ASRock X10, CN=server/name=OpenVPN/emailAddress=Asrock_tsd@asrock.com.tw
        Subject Public Key Info:
            Public Key Algorithm: rsaEncryption
                Public-Key: (1024 bit)
                Modulus:
                    00:c1:b3:87:82:e5:2c:89:38:aa:53:9c:91:86:3a:
                    8b:5f:f8:07:75:23:85:fb:66:20:8a:17:1f:62:d0:
                    70:62:82:08:ae:93:de:00:66:a8:5d:09:96:e4:fd:
                    ad:ec:a9:31:d7:df:ee:ab:c3:c5:9b:40:3b:8d:1d:
                    e5:e2:1f:47:06:e9:a8:83:fb:c6:0d:c9:cf:6f:b3:
                    27:cf:2e:e2:0b:12:c9:1e:66:83:4d:bc:c1:7a:33:
                    c2:dc:1b:7d:a1:4e:e7:1a:63:59:ed:86:d1:5d:a0:
                    ac:03:16:1f:4e:e2:62:aa:a3:db:f6:fb:31:0c:04:
                    33:41:ab:d3:12:27:2a:39:1f
                Exponent: 65537 (0x10001)
        X509v3 extensions:
            X509v3 Basic Constraints: 
                CA:FALSE
            Netscape Cert Type: 
                SSL Server
            Netscape Comment: 
                Easy-RSA Generated Server Certificate
            X509v3 Subject Key Identifier: 
                1F:F0:55:B2:0C:A9:9B:7C:FE:F2:50:20:FB:A4:11:69:CD:C4:59:11
            X509v3 Authority Key Identifier: 
                keyid:6E:03:8D:D4:7B:63:D8:0E:9D:E2:02:AB:49:7D:5E:7F:E1:FF:C8:10
                DirName:/C=TW/ST=TW/L=Taipei/O=ASRock Incorporation/OU=ASRock X10/CN=X10 IoT Router/name=OpenVPN/emailAddress=Asrock_tsd@asrock.com.tw
                serial:F3:6B:E5:66:9C:A4:E4:EB

            X509v3 Extended Key Usage: 
                TLS Web Server Authentication
            X509v3 Key Usage: 
                Digital Signature, Key Encipherment
    Signature Algorithm: sha256WithRSAEncryption
         68:58:96:f7:b4:20:16:70:13:e5:3e:22:54:b6:c8:fe:0d:57:
         bd:69:9d:d8:d4:bb:3c:b0:a5:2f:e7:20:71:03:8a:53:c7:8c:
         dc:49:fa:6d:1d:f5:5c:13:41:5a:5b:0a:94:b6:e3:39:63:f3:
         2e:5d:71:54:cf:8f:ca:0d:8d:92:b5:ec:52:e9:b1:37:e5:98:
         17:73:ec:58:f5:2c:47:93:28:0e:52:13:e3:2a:b3:27:2c:ce:
         9c:61:22:42:1e:5d:66:6a:4e:72:45:1b:29:88:81:27:ac:16:
         8e:27:62:80:aa:cf:9f:9b:07:35:a4:ec:96:34:23:9d:ef:64:
         66:76
-----BEGIN CERTIFICATE-----
MIIEXDCCA8WgAwIBAgIBATANBgkqhkiG9w0BAQsFADCBszELMAkGA1UEBhMCVFcx
CzAJBgNVBAgTAlRXMQ8wDQYDVQQHEwZUYWlwZWkxHTAbBgNVBAoTFEFTUm9jayBJ
bmNvcnBvcmF0aW9uMRMwEQYDVQQLEwpBU1JvY2sgWDEwMRcwFQYDVQQDEw5YMTAg
SW9UIFJvdXRlcjEQMA4GA1UEKRMHT3BlblZQTjEnMCUGCSqGSIb3DQEJARYYQXNy
b2NrX3RzZEBhc3JvY2suY29tLnR3MB4XDTE2MDcxMjAyMzk1MVoXDTI2MDcxMDAy
Mzk1MVowgasxCzAJBgNVBAYTAlRXMQswCQYDVQQIEwJUVzEPMA0GA1UEBxMGVGFp
cGVpMR0wGwYDVQQKExRBU1JvY2sgSW5jb3Jwb3JhdGlvbjETMBEGA1UECxMKQVNS
b2NrIFgxMDEPMA0GA1UEAxMGc2VydmVyMRAwDgYDVQQpEwdPcGVuVlBOMScwJQYJ
KoZIhvcNAQkBFhhBc3JvY2tfdHNkQGFzcm9jay5jb20udHcwgZ8wDQYJKoZIhvcN
AQEBBQADgY0AMIGJAoGBAMGzh4LlLIk4qlOckYY6i1/4B3UjhftmIIoXH2LQcGKC
CK6T3gBmqF0JluT9reypMdff7qvDxZtAO40d5eIfRwbpqIP7xg3Jz2+zJ88u4gsS
yR5mg028wXozwtwbfaFO5xpjWe2G0V2grAMWH07iYqqj2/b7MQwEM0Gr0xInKjkf
AgMBAAGjggGEMIIBgDAJBgNVHRMEAjAAMBEGCWCGSAGG+EIBAQQEAwIGQDA0Bglg
hkgBhvhCAQ0EJxYlRWFzeS1SU0EgR2VuZXJhdGVkIFNlcnZlciBDZXJ0aWZpY2F0
ZTAdBgNVHQ4EFgQUH/BVsgypm3z+8lAg+6QRac3EWREwgegGA1UdIwSB4DCB3YAU
bgON1Htj2A6d4gKrSX1ef+H/yBChgbmkgbYwgbMxCzAJBgNVBAYTAlRXMQswCQYD
VQQIEwJUVzEPMA0GA1UEBxMGVGFpcGVpMR0wGwYDVQQKExRBU1JvY2sgSW5jb3Jw
b3JhdGlvbjETMBEGA1UECxMKQVNSb2NrIFgxMDEXMBUGA1UEAxMOWDEwIElvVCBS
b3V0ZXIxEDAOBgNVBCkTB09wZW5WUE4xJzAlBgkqhkiG9w0BCQEWGEFzcm9ja190
c2RAYXNyb2NrLmNvbS50d4IJAPNr5WacpOTrMBMGA1UdJQQMMAoGCCsGAQUFBwMB
MAsGA1UdDwQEAwIFoDANBgkqhkiG9w0BAQsFAAOBgQBoWJb3tCAWcBPlPiJUtsj+
DVe9aZ3Y1Ls8sKUv5yBxA4pTx4zcSfptHfVcE0FaWwqUtuM5Y/MuXXFUz4/KDY2S
texS6bE35ZgXc+xY9SxHkygOUhPjKrMnLM6cYSJCHl1mak5yRRspiIEnrBaOJ2KA
qs+fmwc1pOyWNCOd72Rmdg==
-----END CERTIFICATE-----
