Certificate:
    Data:
        Version: 3 (0x2)
        Serial Number: 1 (0x1)
    Signature Algorithm: sha256WithRSAEncryption
        Issuer: C=TW, ST=TW, L=Taipei, O=ASRock Incorporation, OU=ASRock X10, CN=X10 IoT Router/name=OpenVPN/emailAddress=Asrock_tsd@asrock.com.tw
        Validity
            Not Before: Jun 22 03:24:02 2016 GMT
            Not After : Jun 20 03:24:02 2026 GMT
        Subject: C=TW, ST=TW, L=Taipei, O=ASRock Incorporation, OU=ASRock X10, CN=server/name=OpenVPN/emailAddress=Asrock_tsd@asrock.com.tw
        Subject Public Key Info:
            Public Key Algorithm: rsaEncryption
                Public-Key: (1024 bit)
                Modulus:
                    00:b7:96:69:ad:12:9c:10:8f:81:8c:fb:a1:6f:cb:
                    fe:38:16:00:b1:20:8d:f8:c2:28:4c:ec:3a:0a:22:
                    2e:b8:cf:55:92:2b:34:86:2a:0d:ae:48:9c:fa:a1:
                    6e:43:7f:a4:44:23:eb:bb:28:0a:c0:c3:15:19:70:
                    0e:d6:e8:f5:bc:85:03:06:10:e5:4a:73:e0:f1:08:
                    bd:37:18:f3:42:31:a5:36:0a:b3:e5:12:02:3e:2a:
                    1c:f8:8b:13:cf:51:12:a1:c7:da:0d:c3:26:1a:a2:
                    ee:97:57:75:a2:37:cb:19:60:a8:c9:46:c6:cc:0e:
                    b9:3f:53:e5:3d:a4:51:ba:0f
                Exponent: 65537 (0x10001)
        X509v3 extensions:
            X509v3 Basic Constraints: 
                CA:FALSE
            Netscape Cert Type: 
                SSL Server
            Netscape Comment: 
                Easy-RSA Generated Server Certificate
            X509v3 Subject Key Identifier: 
                F3:7C:01:C9:42:96:00:1F:80:8B:0F:A9:CF:EC:34:3E:D0:E2:1E:AE
            X509v3 Authority Key Identifier: 
                keyid:95:40:47:4D:FA:BD:CF:4C:0C:A4:76:1E:1B:6B:5C:AA:92:5D:B3:F9
                DirName:/C=TW/ST=TW/L=Taipei/O=ASRock Incorporation/OU=ASRock X10/CN=X10 IoT Router/name=OpenVPN/emailAddress=Asrock_tsd@asrock.com.tw
                serial:E5:DB:24:28:38:25:52:62

            X509v3 Extended Key Usage: 
                TLS Web Server Authentication
            X509v3 Key Usage: 
                Digital Signature, Key Encipherment
    Signature Algorithm: sha256WithRSAEncryption
         68:7b:38:19:90:cd:74:df:4b:6c:ce:92:cd:79:43:e5:0d:4e:
         a6:5c:2c:90:cf:61:37:61:f3:a6:94:2c:65:c8:ec:1c:48:b0:
         17:02:08:44:2f:45:4a:60:24:38:08:a8:c8:72:5a:8d:dc:85:
         24:90:74:55:cc:f5:ec:a3:63:ed:1a:d7:b9:e9:57:06:1a:db:
         be:69:33:2a:cb:22:5f:85:9d:6b:43:8a:fe:24:57:8b:de:1b:
         2f:c4:39:97:48:52:88:34:3f:87:ff:4e:87:46:60:04:27:76:
         27:48:13:90:ad:30:54:3b:87:24:e8:39:9e:c4:bf:f2:2a:2d:
         34:1b
-----BEGIN CERTIFICATE-----
MIIEXDCCA8WgAwIBAgIBATANBgkqhkiG9w0BAQsFADCBszELMAkGA1UEBhMCVFcx
CzAJBgNVBAgTAlRXMQ8wDQYDVQQHEwZUYWlwZWkxHTAbBgNVBAoTFEFTUm9jayBJ
bmNvcnBvcmF0aW9uMRMwEQYDVQQLEwpBU1JvY2sgWDEwMRcwFQYDVQQDEw5YMTAg
SW9UIFJvdXRlcjEQMA4GA1UEKRMHT3BlblZQTjEnMCUGCSqGSIb3DQEJARYYQXNy
b2NrX3RzZEBhc3JvY2suY29tLnR3MB4XDTE2MDYyMjAzMjQwMloXDTI2MDYyMDAz
MjQwMlowgasxCzAJBgNVBAYTAlRXMQswCQYDVQQIEwJUVzEPMA0GA1UEBxMGVGFp
cGVpMR0wGwYDVQQKExRBU1JvY2sgSW5jb3Jwb3JhdGlvbjETMBEGA1UECxMKQVNS
b2NrIFgxMDEPMA0GA1UEAxMGc2VydmVyMRAwDgYDVQQpEwdPcGVuVlBOMScwJQYJ
KoZIhvcNAQkBFhhBc3JvY2tfdHNkQGFzcm9jay5jb20udHcwgZ8wDQYJKoZIhvcN
AQEBBQADgY0AMIGJAoGBALeWaa0SnBCPgYz7oW/L/jgWALEgjfjCKEzsOgoiLrjP
VZIrNIYqDa5InPqhbkN/pEQj67soCsDDFRlwDtbo9byFAwYQ5Upz4PEIvTcY80Ix
pTYKs+USAj4qHPiLE89REqHH2g3DJhqi7pdXdaI3yxlgqMlGxswOuT9T5T2kUboP
AgMBAAGjggGEMIIBgDAJBgNVHRMEAjAAMBEGCWCGSAGG+EIBAQQEAwIGQDA0Bglg
hkgBhvhCAQ0EJxYlRWFzeS1SU0EgR2VuZXJhdGVkIFNlcnZlciBDZXJ0aWZpY2F0
ZTAdBgNVHQ4EFgQU83wByUKWAB+Aiw+pz+w0PtDiHq4wgegGA1UdIwSB4DCB3YAU
lUBHTfq9z0wMpHYeG2tcqpJds/mhgbmkgbYwgbMxCzAJBgNVBAYTAlRXMQswCQYD
VQQIEwJUVzEPMA0GA1UEBxMGVGFpcGVpMR0wGwYDVQQKExRBU1JvY2sgSW5jb3Jw
b3JhdGlvbjETMBEGA1UECxMKQVNSb2NrIFgxMDEXMBUGA1UEAxMOWDEwIElvVCBS
b3V0ZXIxEDAOBgNVBCkTB09wZW5WUE4xJzAlBgkqhkiG9w0BCQEWGEFzcm9ja190
c2RAYXNyb2NrLmNvbS50d4IJAOXbJCg4JVJiMBMGA1UdJQQMMAoGCCsGAQUFBwMB
MAsGA1UdDwQEAwIFoDANBgkqhkiG9w0BAQsFAAOBgQBoezgZkM1030tszpLNeUPl
DU6mXCyQz2E3YfOmlCxlyOwcSLAXAghEL0VKYCQ4CKjIclqN3IUkkHRVzPXso2Pt
Gte56VcGGtu+aTMqyyJfhZ1rQ4r+JFeL3hsvxDmXSFKIND+H/06HRmAEJ3YnSBOQ
rTBUO4ck6DmexL/yKi00Gw==
-----END CERTIFICATE-----
