Certificate:
    Data:
        Version: 3 (0x2)
        Serial Number: 1 (0x1)
    Signature Algorithm: sha256WithRSAEncryption
        Issuer: C=TW, ST=TW, L=Taipei, O=ASRock Incorporation, OU=ASRock X10, CN=X10 IoT Router/name=OpenVPN/emailAddress=Asrock_tsd@asrock.com.tw
        Validity
            Not Before: Jul 15 02:52:14 2016 GMT
            Not After : Jul 13 02:52:14 2026 GMT
        Subject: C=TW, ST=TW, L=Taipei, O=ASRock Incorporation, OU=ASRock X10, CN=server/name=OpenVPN/emailAddress=Asrock_tsd@asrock.com.tw
        Subject Public Key Info:
            Public Key Algorithm: rsaEncryption
                Public-Key: (1024 bit)
                Modulus:
                    00:e6:58:f4:be:c8:80:87:2c:c2:6d:ce:a3:c2:94:
                    c5:5d:7b:22:48:46:94:cc:4f:f2:72:1a:53:45:8d:
                    fd:01:a5:48:e5:70:91:4a:27:c1:54:92:d7:7d:00:
                    ec:11:3e:40:6b:04:68:5c:8f:74:e5:33:ac:de:50:
                    f1:dc:b8:30:0f:6e:61:9b:42:31:6c:38:3e:4f:88:
                    9b:b5:78:a3:79:5c:d2:98:50:4d:77:89:81:6c:fc:
                    53:5c:96:de:52:9b:42:c1:2c:11:ec:ef:be:ad:2f:
                    ed:6a:14:58:83:06:53:1f:9a:1f:8b:93:a6:d2:ff:
                    fe:92:4e:a8:82:16:d3:7d:6b
                Exponent: 65537 (0x10001)
        X509v3 extensions:
            X509v3 Basic Constraints: 
                CA:FALSE
            Netscape Cert Type: 
                SSL Server
            Netscape Comment: 
                Easy-RSA Generated Server Certificate
            X509v3 Subject Key Identifier: 
                73:C3:C7:BA:73:7A:7D:91:32:2F:73:0C:C1:A4:60:33:70:F0:88:73
            X509v3 Authority Key Identifier: 
                keyid:C6:9F:DA:E4:43:8B:EE:B8:5E:31:22:EA:EF:72:37:5D:01:17:91:8C
                DirName:/C=TW/ST=TW/L=Taipei/O=ASRock Incorporation/OU=ASRock X10/CN=X10 IoT Router/name=OpenVPN/emailAddress=Asrock_tsd@asrock.com.tw
                serial:BD:A8:5B:38:AE:17:B0:C4

            X509v3 Extended Key Usage: 
                TLS Web Server Authentication
            X509v3 Key Usage: 
                Digital Signature, Key Encipherment
    Signature Algorithm: sha256WithRSAEncryption
         0d:29:c8:79:65:3f:c6:e0:dd:2b:8b:1c:8b:80:86:27:54:f4:
         b0:4c:ea:2d:8a:7e:e8:4a:8a:a6:f7:a6:59:74:e5:76:79:9c:
         3b:75:8d:bc:5e:72:e3:5d:b1:2d:90:3b:cc:24:47:2b:e7:05:
         aa:85:20:dc:9b:d3:b2:7e:df:a4:f3:25:db:e3:03:b8:c3:49:
         6f:1e:84:69:24:0d:42:8b:c4:be:04:eb:7e:6d:c4:89:1f:68:
         c7:64:45:e5:fe:f9:01:21:8d:73:8f:ee:18:39:a7:6a:79:fd:
         46:df:2b:16:be:a3:5d:6e:aa:34:58:c7:dc:16:d5:05:0b:0b:
         b3:fb
-----BEGIN CERTIFICATE-----
MIIEXDCCA8WgAwIBAgIBATANBgkqhkiG9w0BAQsFADCBszELMAkGA1UEBhMCVFcx
CzAJBgNVBAgTAlRXMQ8wDQYDVQQHEwZUYWlwZWkxHTAbBgNVBAoTFEFTUm9jayBJ
bmNvcnBvcmF0aW9uMRMwEQYDVQQLEwpBU1JvY2sgWDEwMRcwFQYDVQQDEw5YMTAg
SW9UIFJvdXRlcjEQMA4GA1UEKRMHT3BlblZQTjEnMCUGCSqGSIb3DQEJARYYQXNy
b2NrX3RzZEBhc3JvY2suY29tLnR3MB4XDTE2MDcxNTAyNTIxNFoXDTI2MDcxMzAy
NTIxNFowgasxCzAJBgNVBAYTAlRXMQswCQYDVQQIEwJUVzEPMA0GA1UEBxMGVGFp
cGVpMR0wGwYDVQQKExRBU1JvY2sgSW5jb3Jwb3JhdGlvbjETMBEGA1UECxMKQVNS
b2NrIFgxMDEPMA0GA1UEAxMGc2VydmVyMRAwDgYDVQQpEwdPcGVuVlBOMScwJQYJ
KoZIhvcNAQkBFhhBc3JvY2tfdHNkQGFzcm9jay5jb20udHcwgZ8wDQYJKoZIhvcN
AQEBBQADgY0AMIGJAoGBAOZY9L7IgIcswm3Oo8KUxV17IkhGlMxP8nIaU0WN/QGl
SOVwkUonwVSS130A7BE+QGsEaFyPdOUzrN5Q8dy4MA9uYZtCMWw4Pk+Im7V4o3lc
0phQTXeJgWz8U1yW3lKbQsEsEezvvq0v7WoUWIMGUx+aH4uTptL//pJOqIIW031r
AgMBAAGjggGEMIIBgDAJBgNVHRMEAjAAMBEGCWCGSAGG+EIBAQQEAwIGQDA0Bglg
hkgBhvhCAQ0EJxYlRWFzeS1SU0EgR2VuZXJhdGVkIFNlcnZlciBDZXJ0aWZpY2F0
ZTAdBgNVHQ4EFgQUc8PHunN6fZEyL3MMwaRgM3DwiHMwgegGA1UdIwSB4DCB3YAU
xp/a5EOL7rheMSLq73I3XQEXkYyhgbmkgbYwgbMxCzAJBgNVBAYTAlRXMQswCQYD
VQQIEwJUVzEPMA0GA1UEBxMGVGFpcGVpMR0wGwYDVQQKExRBU1JvY2sgSW5jb3Jw
b3JhdGlvbjETMBEGA1UECxMKQVNSb2NrIFgxMDEXMBUGA1UEAxMOWDEwIElvVCBS
b3V0ZXIxEDAOBgNVBCkTB09wZW5WUE4xJzAlBgkqhkiG9w0BCQEWGEFzcm9ja190
c2RAYXNyb2NrLmNvbS50d4IJAL2oWziuF7DEMBMGA1UdJQQMMAoGCCsGAQUFBwMB
MAsGA1UdDwQEAwIFoDANBgkqhkiG9w0BAQsFAAOBgQANKch5ZT/G4N0rixyLgIYn
VPSwTOotin7oSoqm96ZZdOV2eZw7dY28XnLjXbEtkDvMJEcr5wWqhSDcm9Oyft+k
8yXb4wO4w0lvHoRpJA1Ci8S+BOt+bcSJH2jHZEXl/vkBIY1zj+4YOadqef1G3ysW
vqNdbqo0WMfcFtUFCwuz+w==
-----END CERTIFICATE-----
