Certificate:
    Data:
        Version: 3 (0x2)
        Serial Number: 1 (0x1)
    Signature Algorithm: sha256WithRSAEncryption
        Issuer: C=TW, ST=TW, L=Taipei, O=ASRock Incorporation, OU=ASRock X10, CN=X10 IoT Router/name=OpenVPN/emailAddress=Asrock_tsd@asrock.com.tw
        Validity
            Not Before: Jun 30 02:51:47 2016 GMT
            Not After : Jun 28 02:51:47 2026 GMT
        Subject: C=TW, ST=TW, L=Taipei, O=ASRock Incorporation, OU=ASRock X10, CN=server/name=OpenVPN/emailAddress=Asrock_tsd@asrock.com.tw
        Subject Public Key Info:
            Public Key Algorithm: rsaEncryption
                Public-Key: (1024 bit)
                Modulus:
                    00:eb:3c:0d:d2:4b:4c:53:ab:dc:8e:e6:dd:32:44:
                    f7:8c:69:96:dd:21:e7:db:b4:c5:f5:47:e3:80:46:
                    ea:8a:41:a6:67:d0:58:91:96:ad:57:ce:5b:12:c6:
                    67:90:68:90:e1:88:e7:67:14:ec:40:07:da:a3:88:
                    03:ed:3f:78:04:87:c3:6c:6b:78:a9:9c:59:14:ad:
                    82:17:80:39:76:b1:b6:92:db:1e:5f:5c:e5:bf:30:
                    68:e4:1b:7f:6f:27:6c:2f:1f:52:88:dd:ce:d1:f2:
                    38:71:62:4f:a1:31:c7:82:92:82:63:2c:3d:f7:b2:
                    5b:af:e4:7f:77:49:06:76:c5
                Exponent: 65537 (0x10001)
        X509v3 extensions:
            X509v3 Basic Constraints: 
                CA:FALSE
            Netscape Cert Type: 
                SSL Server
            Netscape Comment: 
                Easy-RSA Generated Server Certificate
            X509v3 Subject Key Identifier: 
                9E:1A:F3:FD:71:BD:1D:6D:BE:8E:27:5A:8F:51:A3:48:AD:F3:A2:5D
            X509v3 Authority Key Identifier: 
                keyid:CA:F4:97:0C:DA:5E:C8:0C:25:08:A6:DE:BC:D3:A8:9B:F0:84:6F:BD
                DirName:/C=TW/ST=TW/L=Taipei/O=ASRock Incorporation/OU=ASRock X10/CN=X10 IoT Router/name=OpenVPN/emailAddress=Asrock_tsd@asrock.com.tw
                serial:E6:81:6F:70:DC:83:32:CA

            X509v3 Extended Key Usage: 
                TLS Web Server Authentication
            X509v3 Key Usage: 
                Digital Signature, Key Encipherment
    Signature Algorithm: sha256WithRSAEncryption
         88:a8:c2:72:9c:32:4a:a8:a8:fe:38:1c:43:d5:80:38:1a:2d:
         55:12:26:2c:ef:c6:f8:75:e8:45:12:f7:4f:ff:25:c0:8f:68:
         3e:9e:21:a8:c0:41:f7:82:d3:2f:e3:3a:98:88:f8:bc:1d:00:
         3e:2c:fd:33:68:b1:8f:49:0e:f7:1e:bb:ed:e8:fd:29:4f:e8:
         c3:52:0f:66:cd:61:2c:bc:99:a5:e3:0e:18:29:b3:e9:b6:99:
         21:e9:21:b6:11:dc:8c:b3:69:36:ab:e5:12:8f:23:ca:d5:d2:
         89:79:a8:96:3f:f3:15:b7:9a:ad:a9:50:cc:5a:f0:03:51:e2:
         bf:e3
-----BEGIN CERTIFICATE-----
MIIEXDCCA8WgAwIBAgIBATANBgkqhkiG9w0BAQsFADCBszELMAkGA1UEBhMCVFcx
CzAJBgNVBAgTAlRXMQ8wDQYDVQQHEwZUYWlwZWkxHTAbBgNVBAoTFEFTUm9jayBJ
bmNvcnBvcmF0aW9uMRMwEQYDVQQLEwpBU1JvY2sgWDEwMRcwFQYDVQQDEw5YMTAg
SW9UIFJvdXRlcjEQMA4GA1UEKRMHT3BlblZQTjEnMCUGCSqGSIb3DQEJARYYQXNy
b2NrX3RzZEBhc3JvY2suY29tLnR3MB4XDTE2MDYzMDAyNTE0N1oXDTI2MDYyODAy
NTE0N1owgasxCzAJBgNVBAYTAlRXMQswCQYDVQQIEwJUVzEPMA0GA1UEBxMGVGFp
cGVpMR0wGwYDVQQKExRBU1JvY2sgSW5jb3Jwb3JhdGlvbjETMBEGA1UECxMKQVNS
b2NrIFgxMDEPMA0GA1UEAxMGc2VydmVyMRAwDgYDVQQpEwdPcGVuVlBOMScwJQYJ
KoZIhvcNAQkBFhhBc3JvY2tfdHNkQGFzcm9jay5jb20udHcwgZ8wDQYJKoZIhvcN
AQEBBQADgY0AMIGJAoGBAOs8DdJLTFOr3I7m3TJE94xplt0h59u0xfVH44BG6opB
pmfQWJGWrVfOWxLGZ5BokOGI52cU7EAH2qOIA+0/eASHw2xreKmcWRStgheAOXax
tpLbHl9c5b8waOQbf28nbC8fUojdztHyOHFiT6Exx4KSgmMsPfeyW6/kf3dJBnbF
AgMBAAGjggGEMIIBgDAJBgNVHRMEAjAAMBEGCWCGSAGG+EIBAQQEAwIGQDA0Bglg
hkgBhvhCAQ0EJxYlRWFzeS1SU0EgR2VuZXJhdGVkIFNlcnZlciBDZXJ0aWZpY2F0
ZTAdBgNVHQ4EFgQUnhrz/XG9HW2+jidaj1GjSK3zol0wgegGA1UdIwSB4DCB3YAU
yvSXDNpeyAwlCKbevNOom/CEb72hgbmkgbYwgbMxCzAJBgNVBAYTAlRXMQswCQYD
VQQIEwJUVzEPMA0GA1UEBxMGVGFpcGVpMR0wGwYDVQQKExRBU1JvY2sgSW5jb3Jw
b3JhdGlvbjETMBEGA1UECxMKQVNSb2NrIFgxMDEXMBUGA1UEAxMOWDEwIElvVCBS
b3V0ZXIxEDAOBgNVBCkTB09wZW5WUE4xJzAlBgkqhkiG9w0BCQEWGEFzcm9ja190
c2RAYXNyb2NrLmNvbS50d4IJAOaBb3DcgzLKMBMGA1UdJQQMMAoGCCsGAQUFBwMB
MAsGA1UdDwQEAwIFoDANBgkqhkiG9w0BAQsFAAOBgQCIqMJynDJKqKj+OBxD1YA4
Gi1VEiYs78b4dehFEvdP/yXAj2g+niGowEH3gtMv4zqYiPi8HQA+LP0zaLGPSQ73
Hrvt6P0pT+jDUg9mzWEsvJml4w4YKbPptpkh6SG2EdyMs2k2q+USjyPK1dKJeaiW
P/MVt5qtqVDMWvADUeK/4w==
-----END CERTIFICATE-----
