Certificate:
    Data:
        Version: 3 (0x2)
        Serial Number: 1 (0x1)
    Signature Algorithm: sha256WithRSAEncryption
        Issuer: C=TW, ST=TW, L=Taipei, O=ASRock Incorporation, OU=ASRock X10, CN=X10 IoT Router/name=OpenVPN/emailAddress=Asrock_tsd@asrock.com.tw
        Validity
            Not Before: Jun 27 04:03:46 2016 GMT
            Not After : Jun 25 04:03:46 2026 GMT
        Subject: C=TW, ST=TW, L=Taipei, O=ASRock Incorporation, OU=ASRock X10, CN=server/name=OpenVPN/emailAddress=Asrock_tsd@asrock.com.tw
        Subject Public Key Info:
            Public Key Algorithm: rsaEncryption
                Public-Key: (1024 bit)
                Modulus:
                    00:d8:a4:d2:2a:16:51:d6:2a:0d:2e:54:63:da:c0:
                    81:1a:50:fb:f8:cc:1f:5e:d1:01:d3:35:70:34:e0:
                    c3:e7:37:0d:27:ef:cf:56:8a:ac:40:51:b6:3d:31:
                    67:72:77:91:1c:83:85:18:81:1d:ed:67:d9:38:f5:
                    bc:89:a6:f2:1d:1a:f1:12:f9:43:4e:c1:3e:c0:97:
                    47:7a:97:11:d1:59:d7:6c:8f:8f:f3:85:32:31:a9:
                    52:3c:e6:5a:dd:be:07:fa:ce:18:38:3f:17:44:d5:
                    16:1e:3b:37:37:c1:b9:3e:f4:e8:d4:ef:5a:9e:a9:
                    82:9e:39:aa:a3:14:64:45:57
                Exponent: 65537 (0x10001)
        X509v3 extensions:
            X509v3 Basic Constraints: 
                CA:FALSE
            Netscape Cert Type: 
                SSL Server
            Netscape Comment: 
                Easy-RSA Generated Server Certificate
            X509v3 Subject Key Identifier: 
                75:39:97:14:8B:77:F0:EE:BE:53:7D:D8:3E:BD:83:53:24:3A:D1:C8
            X509v3 Authority Key Identifier: 
                keyid:24:61:A3:69:4D:EE:98:EF:1B:E8:D2:0E:01:45:9C:72:6E:9E:5F:76
                DirName:/C=TW/ST=TW/L=Taipei/O=ASRock Incorporation/OU=ASRock X10/CN=X10 IoT Router/name=OpenVPN/emailAddress=Asrock_tsd@asrock.com.tw
                serial:81:4F:15:69:EF:46:44:4D

            X509v3 Extended Key Usage: 
                TLS Web Server Authentication
            X509v3 Key Usage: 
                Digital Signature, Key Encipherment
    Signature Algorithm: sha256WithRSAEncryption
         b4:0e:9f:7d:59:c9:68:f5:ac:cf:31:a3:33:52:50:5f:5f:40:
         c3:12:30:3c:07:d6:d9:f2:a9:76:51:a7:0a:18:8a:ef:09:07:
         65:e5:73:5f:f9:46:c1:fe:6a:0d:8d:39:d9:fb:41:c6:fc:e8:
         db:cc:52:39:c7:23:40:45:63:d7:90:d2:63:18:8f:be:43:79:
         38:35:6c:2f:87:8f:bb:dd:c8:79:04:e8:29:13:1a:09:96:e2:
         64:73:ba:ac:de:c9:dd:b0:13:f9:57:3d:cb:9a:22:a3:46:d2:
         61:3b:62:c4:1d:cb:78:f3:2c:bb:11:e1:2e:6d:1b:ce:45:e2:
         d4:e7
-----BEGIN CERTIFICATE-----
MIIEXDCCA8WgAwIBAgIBATANBgkqhkiG9w0BAQsFADCBszELMAkGA1UEBhMCVFcx
CzAJBgNVBAgTAlRXMQ8wDQYDVQQHEwZUYWlwZWkxHTAbBgNVBAoTFEFTUm9jayBJ
bmNvcnBvcmF0aW9uMRMwEQYDVQQLEwpBU1JvY2sgWDEwMRcwFQYDVQQDEw5YMTAg
SW9UIFJvdXRlcjEQMA4GA1UEKRMHT3BlblZQTjEnMCUGCSqGSIb3DQEJARYYQXNy
b2NrX3RzZEBhc3JvY2suY29tLnR3MB4XDTE2MDYyNzA0MDM0NloXDTI2MDYyNTA0
MDM0NlowgasxCzAJBgNVBAYTAlRXMQswCQYDVQQIEwJUVzEPMA0GA1UEBxMGVGFp
cGVpMR0wGwYDVQQKExRBU1JvY2sgSW5jb3Jwb3JhdGlvbjETMBEGA1UECxMKQVNS
b2NrIFgxMDEPMA0GA1UEAxMGc2VydmVyMRAwDgYDVQQpEwdPcGVuVlBOMScwJQYJ
KoZIhvcNAQkBFhhBc3JvY2tfdHNkQGFzcm9jay5jb20udHcwgZ8wDQYJKoZIhvcN
AQEBBQADgY0AMIGJAoGBANik0ioWUdYqDS5UY9rAgRpQ+/jMH17RAdM1cDTgw+c3
DSfvz1aKrEBRtj0xZ3J3kRyDhRiBHe1n2Tj1vImm8h0a8RL5Q07BPsCXR3qXEdFZ
12yPj/OFMjGpUjzmWt2+B/rOGDg/F0TVFh47NzfBuT706NTvWp6pgp45qqMUZEVX
AgMBAAGjggGEMIIBgDAJBgNVHRMEAjAAMBEGCWCGSAGG+EIBAQQEAwIGQDA0Bglg
hkgBhvhCAQ0EJxYlRWFzeS1SU0EgR2VuZXJhdGVkIFNlcnZlciBDZXJ0aWZpY2F0
ZTAdBgNVHQ4EFgQUdTmXFIt38O6+U33YPr2DUyQ60cgwgegGA1UdIwSB4DCB3YAU
JGGjaU3umO8b6NIOAUWccm6eX3ahgbmkgbYwgbMxCzAJBgNVBAYTAlRXMQswCQYD
VQQIEwJUVzEPMA0GA1UEBxMGVGFpcGVpMR0wGwYDVQQKExRBU1JvY2sgSW5jb3Jw
b3JhdGlvbjETMBEGA1UECxMKQVNSb2NrIFgxMDEXMBUGA1UEAxMOWDEwIElvVCBS
b3V0ZXIxEDAOBgNVBCkTB09wZW5WUE4xJzAlBgkqhkiG9w0BCQEWGEFzcm9ja190
c2RAYXNyb2NrLmNvbS50d4IJAIFPFWnvRkRNMBMGA1UdJQQMMAoGCCsGAQUFBwMB
MAsGA1UdDwQEAwIFoDANBgkqhkiG9w0BAQsFAAOBgQC0Dp99Wclo9azPMaMzUlBf
X0DDEjA8B9bZ8ql2UacKGIrvCQdl5XNf+UbB/moNjTnZ+0HG/OjbzFI5xyNARWPX
kNJjGI++Q3k4NWwvh4+73ch5BOgpExoJluJkc7qs3sndsBP5Vz3LmiKjRtJhO2LE
Hct48yy7EeEubRvOReLU5w==
-----END CERTIFICATE-----
