Certificate:
    Data:
        Version: 3 (0x2)
        Serial Number: 1 (0x1)
    Signature Algorithm: sha256WithRSAEncryption
        Issuer: C=TW, ST=TW, L=Taipei, O=ASRock Incorporation, OU=ASRock X10, CN=X10 IoT Router/name=OpenVPN/emailAddress=Asrock_tsd@asrock.com.tw
        Validity
            Not Before: Jul 15 02:34:00 2016 GMT
            Not After : Jul 13 02:34:00 2026 GMT
        Subject: C=TW, ST=TW, L=Taipei, O=ASRock Incorporation, OU=ASRock X10, CN=server/name=OpenVPN/emailAddress=Asrock_tsd@asrock.com.tw
        Subject Public Key Info:
            Public Key Algorithm: rsaEncryption
                Public-Key: (1024 bit)
                Modulus:
                    00:cd:41:8d:d6:4e:12:c0:b2:72:af:1d:d9:ad:08:
                    1a:5d:ba:9f:8a:df:ca:a8:06:63:88:04:1c:68:e3:
                    0d:34:2e:01:b5:66:1b:8e:d6:a5:e7:64:d2:e3:ac:
                    35:e5:52:fd:a4:28:e5:26:e4:9c:30:08:30:5b:69:
                    d5:d6:48:c5:08:da:1f:85:f5:df:b6:17:39:4e:f3:
                    f6:f6:46:60:4f:97:92:05:71:a4:de:7b:74:d1:30:
                    04:7e:05:24:0b:3a:f8:c7:eb:85:a4:e9:23:6e:9d:
                    1c:88:b0:b3:24:9e:0e:9c:33:0d:67:67:89:d3:33:
                    f7:21:11:f6:85:7b:d5:76:ff
                Exponent: 65537 (0x10001)
        X509v3 extensions:
            X509v3 Basic Constraints: 
                CA:FALSE
            Netscape Cert Type: 
                SSL Server
            Netscape Comment: 
                Easy-RSA Generated Server Certificate
            X509v3 Subject Key Identifier: 
                43:72:FE:25:BD:17:44:DC:B6:8D:C5:41:D3:EC:8F:7D:E5:EC:C1:7F
            X509v3 Authority Key Identifier: 
                keyid:7A:5F:86:63:6E:71:A1:67:46:7C:A4:31:04:73:21:89:6A:57:DD:DB
                DirName:/C=TW/ST=TW/L=Taipei/O=ASRock Incorporation/OU=ASRock X10/CN=X10 IoT Router/name=OpenVPN/emailAddress=Asrock_tsd@asrock.com.tw
                serial:DC:04:D5:AC:FA:D8:74:3B

            X509v3 Extended Key Usage: 
                TLS Web Server Authentication
            X509v3 Key Usage: 
                Digital Signature, Key Encipherment
    Signature Algorithm: sha256WithRSAEncryption
         4d:b8:0b:fa:02:1d:aa:e8:04:8f:f7:aa:b2:4c:ad:a9:fa:96:
         af:2e:52:d2:04:5a:bc:78:cb:c3:cf:27:2d:73:6c:58:59:ec:
         6c:ef:e0:7b:bc:9d:92:7c:0c:37:a7:a6:cb:cf:c1:aa:c2:88:
         84:aa:b4:08:02:57:fa:9e:21:b2:c5:81:9d:f0:a8:6f:ce:70:
         6e:83:39:ae:bc:68:1c:4f:2f:c7:89:5d:99:ad:21:18:c8:18:
         27:64:ef:d2:5e:05:df:67:59:d3:73:1c:bd:3f:10:99:79:7a:
         72:14:a5:97:b2:c2:7c:f5:65:30:2b:04:3e:68:ea:12:dc:dc:
         2f:f5
-----BEGIN CERTIFICATE-----
MIIEXDCCA8WgAwIBAgIBATANBgkqhkiG9w0BAQsFADCBszELMAkGA1UEBhMCVFcx
CzAJBgNVBAgTAlRXMQ8wDQYDVQQHEwZUYWlwZWkxHTAbBgNVBAoTFEFTUm9jayBJ
bmNvcnBvcmF0aW9uMRMwEQYDVQQLEwpBU1JvY2sgWDEwMRcwFQYDVQQDEw5YMTAg
SW9UIFJvdXRlcjEQMA4GA1UEKRMHT3BlblZQTjEnMCUGCSqGSIb3DQEJARYYQXNy
b2NrX3RzZEBhc3JvY2suY29tLnR3MB4XDTE2MDcxNTAyMzQwMFoXDTI2MDcxMzAy
MzQwMFowgasxCzAJBgNVBAYTAlRXMQswCQYDVQQIEwJUVzEPMA0GA1UEBxMGVGFp
cGVpMR0wGwYDVQQKExRBU1JvY2sgSW5jb3Jwb3JhdGlvbjETMBEGA1UECxMKQVNS
b2NrIFgxMDEPMA0GA1UEAxMGc2VydmVyMRAwDgYDVQQpEwdPcGVuVlBOMScwJQYJ
KoZIhvcNAQkBFhhBc3JvY2tfdHNkQGFzcm9jay5jb20udHcwgZ8wDQYJKoZIhvcN
AQEBBQADgY0AMIGJAoGBAM1BjdZOEsCycq8d2a0IGl26n4rfyqgGY4gEHGjjDTQu
AbVmG47Wpedk0uOsNeVS/aQo5SbknDAIMFtp1dZIxQjaH4X137YXOU7z9vZGYE+X
kgVxpN57dNEwBH4FJAs6+MfrhaTpI26dHIiwsySeDpwzDWdnidMz9yER9oV71Xb/
AgMBAAGjggGEMIIBgDAJBgNVHRMEAjAAMBEGCWCGSAGG+EIBAQQEAwIGQDA0Bglg
hkgBhvhCAQ0EJxYlRWFzeS1SU0EgR2VuZXJhdGVkIFNlcnZlciBDZXJ0aWZpY2F0
ZTAdBgNVHQ4EFgQUQ3L+Jb0XRNy2jcVB0+yPfeXswX8wgegGA1UdIwSB4DCB3YAU
el+GY25xoWdGfKQxBHMhiWpX3duhgbmkgbYwgbMxCzAJBgNVBAYTAlRXMQswCQYD
VQQIEwJUVzEPMA0GA1UEBxMGVGFpcGVpMR0wGwYDVQQKExRBU1JvY2sgSW5jb3Jw
b3JhdGlvbjETMBEGA1UECxMKQVNSb2NrIFgxMDEXMBUGA1UEAxMOWDEwIElvVCBS
b3V0ZXIxEDAOBgNVBCkTB09wZW5WUE4xJzAlBgkqhkiG9w0BCQEWGEFzcm9ja190
c2RAYXNyb2NrLmNvbS50d4IJANwE1az62HQ7MBMGA1UdJQQMMAoGCCsGAQUFBwMB
MAsGA1UdDwQEAwIFoDANBgkqhkiG9w0BAQsFAAOBgQBNuAv6Ah2q6ASP96qyTK2p
+pavLlLSBFq8eMvDzyctc2xYWexs7+B7vJ2SfAw3p6bLz8GqwoiEqrQIAlf6niGy
xYGd8KhvznBugzmuvGgcTy/HiV2ZrSEYyBgnZO/SXgXfZ1nTcxy9PxCZeXpyFKWX
ssJ89WUwKwQ+aOoS3Nwv9Q==
-----END CERTIFICATE-----
