Certificate:
    Data:
        Version: 3 (0x2)
        Serial Number: 1 (0x1)
    Signature Algorithm: sha256WithRSAEncryption
        Issuer: C=TW, ST=TW, L=Taipei, O=ASRock Incorporation, OU=ASRock X10, CN=X10 IoT Router/name=OpenVPN/emailAddress=Asrock_tsd@asrock.com.tw
        Validity
            Not Before: Jun 20 07:14:40 2016 GMT
            Not After : Jun 18 07:14:40 2026 GMT
        Subject: C=TW, ST=TW, L=Taipei, O=ASRock Incorporation, OU=ASRock X10, CN=server/name=OpenVPN/emailAddress=Asrock_tsd@asrock.com.tw
        Subject Public Key Info:
            Public Key Algorithm: rsaEncryption
                Public-Key: (1024 bit)
                Modulus:
                    00:a5:72:8b:b0:f5:10:62:c9:a5:08:9f:19:40:a3:
                    8d:5b:27:cd:8c:f6:ec:39:20:3c:a4:ae:16:89:3c:
                    cc:fb:a9:9d:33:18:ab:51:e0:c7:44:3a:41:6e:85:
                    87:83:96:08:d1:bf:66:6f:0d:11:eb:7f:84:b3:ae:
                    d7:a2:75:cd:0c:f0:20:23:fb:e9:28:2f:6f:1e:5f:
                    75:29:90:cb:0f:d3:24:6d:1f:f9:38:f8:0c:6d:53:
                    bf:61:d0:2c:d5:76:43:9b:ea:6f:75:5b:4b:3e:96:
                    e8:d3:50:c0:8b:15:99:75:6f:c8:b5:12:c4:d2:8d:
                    ac:27:1e:87:a1:e4:5e:91:2f
                Exponent: 65537 (0x10001)
        X509v3 extensions:
            X509v3 Basic Constraints: 
                CA:FALSE
            Netscape Cert Type: 
                SSL Server
            Netscape Comment: 
                Easy-RSA Generated Server Certificate
            X509v3 Subject Key Identifier: 
                F1:B7:0E:72:8C:FD:8A:61:0E:90:A7:02:69:C1:07:AC:C8:5C:9E:AE
            X509v3 Authority Key Identifier: 
                keyid:13:7A:74:F4:3B:48:44:4A:67:26:81:9C:6D:0F:75:16:A9:2D:E1:50
                DirName:/C=TW/ST=TW/L=Taipei/O=ASRock Incorporation/OU=ASRock X10/CN=X10 IoT Router/name=OpenVPN/emailAddress=Asrock_tsd@asrock.com.tw
                serial:9E:20:56:03:78:FC:2C:0E

            X509v3 Extended Key Usage: 
                TLS Web Server Authentication
            X509v3 Key Usage: 
                Digital Signature, Key Encipherment
    Signature Algorithm: sha256WithRSAEncryption
         74:ab:36:44:f6:6e:ed:17:85:37:df:8f:78:75:2e:9f:31:73:
         51:5a:9b:89:d4:a0:7a:32:9b:be:41:a1:cf:ff:16:bb:9f:ea:
         a7:8f:fa:ff:52:4e:de:5c:dd:87:3d:1c:a2:6b:64:28:e5:dd:
         78:51:6b:d6:5d:b4:aa:5e:66:f9:1b:64:9e:05:5a:64:f7:e8:
         d7:9e:e6:07:a7:a1:0a:bd:a8:65:84:55:ff:b8:f0:86:b5:73:
         3d:8d:79:d5:91:7f:3e:81:0d:a1:df:92:e9:eb:78:b8:9b:e5:
         7f:73:d1:f8:4c:a3:35:d7:66:5a:2b:49:81:12:3c:3c:9a:75:
         dc:07
-----BEGIN CERTIFICATE-----
MIIEXDCCA8WgAwIBAgIBATANBgkqhkiG9w0BAQsFADCBszELMAkGA1UEBhMCVFcx
CzAJBgNVBAgTAlRXMQ8wDQYDVQQHEwZUYWlwZWkxHTAbBgNVBAoTFEFTUm9jayBJ
bmNvcnBvcmF0aW9uMRMwEQYDVQQLEwpBU1JvY2sgWDEwMRcwFQYDVQQDEw5YMTAg
SW9UIFJvdXRlcjEQMA4GA1UEKRMHT3BlblZQTjEnMCUGCSqGSIb3DQEJARYYQXNy
b2NrX3RzZEBhc3JvY2suY29tLnR3MB4XDTE2MDYyMDA3MTQ0MFoXDTI2MDYxODA3
MTQ0MFowgasxCzAJBgNVBAYTAlRXMQswCQYDVQQIEwJUVzEPMA0GA1UEBxMGVGFp
cGVpMR0wGwYDVQQKExRBU1JvY2sgSW5jb3Jwb3JhdGlvbjETMBEGA1UECxMKQVNS
b2NrIFgxMDEPMA0GA1UEAxMGc2VydmVyMRAwDgYDVQQpEwdPcGVuVlBOMScwJQYJ
KoZIhvcNAQkBFhhBc3JvY2tfdHNkQGFzcm9jay5jb20udHcwgZ8wDQYJKoZIhvcN
AQEBBQADgY0AMIGJAoGBAKVyi7D1EGLJpQifGUCjjVsnzYz27DkgPKSuFok8zPup
nTMYq1Hgx0Q6QW6Fh4OWCNG/Zm8NEet/hLOu16J1zQzwICP76Sgvbx5fdSmQyw/T
JG0f+Tj4DG1Tv2HQLNV2Q5vqb3VbSz6W6NNQwIsVmXVvyLUSxNKNrCceh6HkXpEv
AgMBAAGjggGEMIIBgDAJBgNVHRMEAjAAMBEGCWCGSAGG+EIBAQQEAwIGQDA0Bglg
hkgBhvhCAQ0EJxYlRWFzeS1SU0EgR2VuZXJhdGVkIFNlcnZlciBDZXJ0aWZpY2F0
ZTAdBgNVHQ4EFgQU8bcOcoz9imEOkKcCacEHrMhcnq4wgegGA1UdIwSB4DCB3YAU
E3p09DtIREpnJoGcbQ91Fqkt4VChgbmkgbYwgbMxCzAJBgNVBAYTAlRXMQswCQYD
VQQIEwJUVzEPMA0GA1UEBxMGVGFpcGVpMR0wGwYDVQQKExRBU1JvY2sgSW5jb3Jw
b3JhdGlvbjETMBEGA1UECxMKQVNSb2NrIFgxMDEXMBUGA1UEAxMOWDEwIElvVCBS
b3V0ZXIxEDAOBgNVBCkTB09wZW5WUE4xJzAlBgkqhkiG9w0BCQEWGEFzcm9ja190
c2RAYXNyb2NrLmNvbS50d4IJAJ4gVgN4/CwOMBMGA1UdJQQMMAoGCCsGAQUFBwMB
MAsGA1UdDwQEAwIFoDANBgkqhkiG9w0BAQsFAAOBgQB0qzZE9m7tF4U33494dS6f
MXNRWpuJ1KB6Mpu+QaHP/xa7n+qnj/r/Uk7eXN2HPRyia2Qo5d14UWvWXbSqXmb5
G2SeBVpk9+jXnuYHp6EKvahlhFX/uPCGtXM9jXnVkX8+gQ2h35Lp63i4m+V/c9H4
TKM112ZaK0mBEjw8mnXcBw==
-----END CERTIFICATE-----
