Certificate:
    Data:
        Version: 3 (0x2)
        Serial Number: 1 (0x1)
    Signature Algorithm: sha256WithRSAEncryption
        Issuer: C=TW, ST=TW, L=Taipei, O=ASRock Incorporation, OU=ASRock X10, CN=X10 IoT Router/name=OpenVPN/emailAddress=Asrock_tsd@asrock.com.tw
        Validity
            Not Before: Jul  7 03:04:57 2016 GMT
            Not After : Jul  5 03:04:57 2026 GMT
        Subject: C=TW, ST=TW, L=Taipei, O=ASRock Incorporation, OU=ASRock X10, CN=server/name=OpenVPN/emailAddress=Asrock_tsd@asrock.com.tw
        Subject Public Key Info:
            Public Key Algorithm: rsaEncryption
                Public-Key: (1024 bit)
                Modulus:
                    00:b7:21:a9:8b:e4:4f:dc:23:2e:8d:99:b9:1c:0e:
                    c9:cd:64:90:b5:9d:c5:2d:7c:56:00:09:21:3a:ad:
                    a6:9b:cd:3a:9d:dd:34:97:a8:d4:0c:6d:ab:37:a7:
                    5e:e5:b9:8c:5d:6e:0d:ee:1a:73:85:21:76:bb:c0:
                    46:d4:d0:e3:07:c0:9a:e0:c2:c4:5a:f3:26:6d:76:
                    e4:88:ba:a9:14:39:c2:f7:36:9d:6b:80:73:6e:49:
                    b2:49:04:12:ee:be:60:06:af:35:5f:ea:c7:9b:9d:
                    5f:31:30:84:6a:e9:a8:31:d2:1c:fd:66:77:b5:50:
                    6d:c0:86:b8:97:20:97:b2:d9
                Exponent: 65537 (0x10001)
        X509v3 extensions:
            X509v3 Basic Constraints: 
                CA:FALSE
            Netscape Cert Type: 
                SSL Server
            Netscape Comment: 
                Easy-RSA Generated Server Certificate
            X509v3 Subject Key Identifier: 
                EE:C6:EA:00:88:68:9F:82:A5:E0:80:ED:85:6B:33:81:56:45:AF:0D
            X509v3 Authority Key Identifier: 
                keyid:1D:9B:3A:84:3B:43:75:94:7D:C5:B4:3D:E0:61:72:31:C4:B9:38:D9
                DirName:/C=TW/ST=TW/L=Taipei/O=ASRock Incorporation/OU=ASRock X10/CN=X10 IoT Router/name=OpenVPN/emailAddress=Asrock_tsd@asrock.com.tw
                serial:A2:D6:58:49:34:07:6A:0B

            X509v3 Extended Key Usage: 
                TLS Web Server Authentication
            X509v3 Key Usage: 
                Digital Signature, Key Encipherment
    Signature Algorithm: sha256WithRSAEncryption
         6b:67:6a:c5:15:8a:1e:d8:f8:25:17:67:0f:4e:aa:cb:bf:11:
         1a:d0:cf:40:d9:b0:62:17:b3:df:36:63:09:12:f8:13:17:7b:
         99:46:96:1d:39:13:52:06:ed:b6:5e:e7:27:c2:14:ab:ee:54:
         cb:f7:e2:4e:74:ae:2b:95:7b:e8:db:d4:0c:66:e1:5b:78:1e:
         30:da:d9:7b:49:1c:52:d8:5b:8f:f1:ab:5d:e6:46:52:21:48:
         af:b2:1c:b8:18:0e:2e:30:e2:83:96:d1:d2:fd:db:a9:a8:c0:
         82:e1:6e:e2:9c:9e:0c:c8:c8:00:fa:78:ab:ab:9f:c9:77:5e:
         31:ce
-----BEGIN CERTIFICATE-----
MIIEXDCCA8WgAwIBAgIBATANBgkqhkiG9w0BAQsFADCBszELMAkGA1UEBhMCVFcx
CzAJBgNVBAgTAlRXMQ8wDQYDVQQHEwZUYWlwZWkxHTAbBgNVBAoTFEFTUm9jayBJ
bmNvcnBvcmF0aW9uMRMwEQYDVQQLEwpBU1JvY2sgWDEwMRcwFQYDVQQDEw5YMTAg
SW9UIFJvdXRlcjEQMA4GA1UEKRMHT3BlblZQTjEnMCUGCSqGSIb3DQEJARYYQXNy
b2NrX3RzZEBhc3JvY2suY29tLnR3MB4XDTE2MDcwNzAzMDQ1N1oXDTI2MDcwNTAz
MDQ1N1owgasxCzAJBgNVBAYTAlRXMQswCQYDVQQIEwJUVzEPMA0GA1UEBxMGVGFp
cGVpMR0wGwYDVQQKExRBU1JvY2sgSW5jb3Jwb3JhdGlvbjETMBEGA1UECxMKQVNS
b2NrIFgxMDEPMA0GA1UEAxMGc2VydmVyMRAwDgYDVQQpEwdPcGVuVlBOMScwJQYJ
KoZIhvcNAQkBFhhBc3JvY2tfdHNkQGFzcm9jay5jb20udHcwgZ8wDQYJKoZIhvcN
AQEBBQADgY0AMIGJAoGBALchqYvkT9wjLo2ZuRwOyc1kkLWdxS18VgAJITqtppvN
Op3dNJeo1AxtqzenXuW5jF1uDe4ac4UhdrvARtTQ4wfAmuDCxFrzJm125Ii6qRQ5
wvc2nWuAc25JskkEEu6+YAavNV/qx5udXzEwhGrpqDHSHP1md7VQbcCGuJcgl7LZ
AgMBAAGjggGEMIIBgDAJBgNVHRMEAjAAMBEGCWCGSAGG+EIBAQQEAwIGQDA0Bglg
hkgBhvhCAQ0EJxYlRWFzeS1SU0EgR2VuZXJhdGVkIFNlcnZlciBDZXJ0aWZpY2F0
ZTAdBgNVHQ4EFgQU7sbqAIhon4Kl4IDthWszgVZFrw0wgegGA1UdIwSB4DCB3YAU
HZs6hDtDdZR9xbQ94GFyMcS5ONmhgbmkgbYwgbMxCzAJBgNVBAYTAlRXMQswCQYD
VQQIEwJUVzEPMA0GA1UEBxMGVGFpcGVpMR0wGwYDVQQKExRBU1JvY2sgSW5jb3Jw
b3JhdGlvbjETMBEGA1UECxMKQVNSb2NrIFgxMDEXMBUGA1UEAxMOWDEwIElvVCBS
b3V0ZXIxEDAOBgNVBCkTB09wZW5WUE4xJzAlBgkqhkiG9w0BCQEWGEFzcm9ja190
c2RAYXNyb2NrLmNvbS50d4IJAKLWWEk0B2oLMBMGA1UdJQQMMAoGCCsGAQUFBwMB
MAsGA1UdDwQEAwIFoDANBgkqhkiG9w0BAQsFAAOBgQBrZ2rFFYoe2PglF2cPTqrL
vxEa0M9A2bBiF7PfNmMJEvgTF3uZRpYdORNSBu22XucnwhSr7lTL9+JOdK4rlXvo
29QMZuFbeB4w2tl7SRxS2FuP8atd5kZSIUivshy4GA4uMOKDltHS/dupqMCC4W7i
nJ4MyMgA+nirq5/Jd14xzg==
-----END CERTIFICATE-----
