Certificate:
    Data:
        Version: 3 (0x2)
        Serial Number: 1 (0x1)
    Signature Algorithm: sha256WithRSAEncryption
        Issuer: C=TW, ST=TW, L=Taipei, O=ASRock Incorporation, OU=ASRock X10, CN=X10 IoT Router/name=OpenVPN/emailAddress=Asrock_tsd@asrock.com.tw
        Validity
            Not Before: Jul  1 03:18:53 2016 GMT
            Not After : Jun 29 03:18:53 2026 GMT
        Subject: C=TW, ST=TW, L=Taipei, O=ASRock Incorporation, OU=ASRock X10, CN=server/name=OpenVPN/emailAddress=Asrock_tsd@asrock.com.tw
        Subject Public Key Info:
            Public Key Algorithm: rsaEncryption
                Public-Key: (1024 bit)
                Modulus:
                    00:dd:bb:1f:19:06:bc:5a:b1:dd:a4:3a:89:b7:ad:
                    7d:76:b8:1c:a4:94:9d:7b:10:59:88:38:dd:d9:84:
                    75:a1:07:d8:7e:a0:76:9a:94:de:58:86:3f:b0:ac:
                    4f:b1:c9:b2:b8:f7:d6:d8:9c:33:81:73:b1:e8:f1:
                    db:dd:5f:4a:0a:0d:e5:de:6e:fa:ca:37:5e:3e:75:
                    66:b9:f8:54:f8:2c:46:ba:ff:42:c2:49:f3:e1:68:
                    13:6c:55:ce:09:4c:30:d2:95:ec:03:f8:2f:85:01:
                    53:1e:d8:81:ce:e6:71:dc:14:cf:ae:c0:99:f8:0a:
                    43:88:9d:6c:78:31:67:c4:ed
                Exponent: 65537 (0x10001)
        X509v3 extensions:
            X509v3 Basic Constraints: 
                CA:FALSE
            Netscape Cert Type: 
                SSL Server
            Netscape Comment: 
                Easy-RSA Generated Server Certificate
            X509v3 Subject Key Identifier: 
                F5:73:19:92:E1:BD:A8:1D:27:A4:59:91:F8:1B:31:CA:9A:1C:9D:CB
            X509v3 Authority Key Identifier: 
                keyid:72:16:2F:67:1C:76:11:63:D9:77:05:0D:D2:57:EA:4D:95:0C:6E:D2
                DirName:/C=TW/ST=TW/L=Taipei/O=ASRock Incorporation/OU=ASRock X10/CN=X10 IoT Router/name=OpenVPN/emailAddress=Asrock_tsd@asrock.com.tw
                serial:FD:F2:55:C0:0A:BF:40:BD

            X509v3 Extended Key Usage: 
                TLS Web Server Authentication
            X509v3 Key Usage: 
                Digital Signature, Key Encipherment
    Signature Algorithm: sha256WithRSAEncryption
         22:6c:38:df:a2:29:6d:73:18:95:76:a5:71:22:4b:ad:cf:2d:
         24:bc:64:8f:02:44:c9:0e:76:da:71:44:1a:53:a6:69:63:f9:
         08:54:0f:a8:79:17:7b:bc:e7:2e:2d:2e:44:e0:39:3b:d0:53:
         98:39:8e:12:6b:27:d2:c7:e3:ab:a3:dc:48:c8:7e:e7:2d:d5:
         a9:a1:9b:cc:38:95:3b:dd:00:d4:9e:ba:1d:86:3e:73:c1:37:
         bb:6c:f2:34:c4:2e:ad:17:57:18:48:19:22:bd:87:93:d1:06:
         72:cf:6f:a6:cc:c5:01:24:d6:75:25:84:58:15:6f:24:97:2c:
         59:e7
-----BEGIN CERTIFICATE-----
MIIEXDCCA8WgAwIBAgIBATANBgkqhkiG9w0BAQsFADCBszELMAkGA1UEBhMCVFcx
CzAJBgNVBAgTAlRXMQ8wDQYDVQQHEwZUYWlwZWkxHTAbBgNVBAoTFEFTUm9jayBJ
bmNvcnBvcmF0aW9uMRMwEQYDVQQLEwpBU1JvY2sgWDEwMRcwFQYDVQQDEw5YMTAg
SW9UIFJvdXRlcjEQMA4GA1UEKRMHT3BlblZQTjEnMCUGCSqGSIb3DQEJARYYQXNy
b2NrX3RzZEBhc3JvY2suY29tLnR3MB4XDTE2MDcwMTAzMTg1M1oXDTI2MDYyOTAz
MTg1M1owgasxCzAJBgNVBAYTAlRXMQswCQYDVQQIEwJUVzEPMA0GA1UEBxMGVGFp
cGVpMR0wGwYDVQQKExRBU1JvY2sgSW5jb3Jwb3JhdGlvbjETMBEGA1UECxMKQVNS
b2NrIFgxMDEPMA0GA1UEAxMGc2VydmVyMRAwDgYDVQQpEwdPcGVuVlBOMScwJQYJ
KoZIhvcNAQkBFhhBc3JvY2tfdHNkQGFzcm9jay5jb20udHcwgZ8wDQYJKoZIhvcN
AQEBBQADgY0AMIGJAoGBAN27HxkGvFqx3aQ6ibetfXa4HKSUnXsQWYg43dmEdaEH
2H6gdpqU3liGP7CsT7HJsrj31ticM4Fzsejx291fSgoN5d5u+so3Xj51Zrn4VPgs
Rrr/QsJJ8+FoE2xVzglMMNKV7AP4L4UBUx7Ygc7mcdwUz67AmfgKQ4idbHgxZ8Tt
AgMBAAGjggGEMIIBgDAJBgNVHRMEAjAAMBEGCWCGSAGG+EIBAQQEAwIGQDA0Bglg
hkgBhvhCAQ0EJxYlRWFzeS1SU0EgR2VuZXJhdGVkIFNlcnZlciBDZXJ0aWZpY2F0
ZTAdBgNVHQ4EFgQU9XMZkuG9qB0npFmR+BsxypocncswgegGA1UdIwSB4DCB3YAU
chYvZxx2EWPZdwUN0lfqTZUMbtKhgbmkgbYwgbMxCzAJBgNVBAYTAlRXMQswCQYD
VQQIEwJUVzEPMA0GA1UEBxMGVGFpcGVpMR0wGwYDVQQKExRBU1JvY2sgSW5jb3Jw
b3JhdGlvbjETMBEGA1UECxMKQVNSb2NrIFgxMDEXMBUGA1UEAxMOWDEwIElvVCBS
b3V0ZXIxEDAOBgNVBCkTB09wZW5WUE4xJzAlBgkqhkiG9w0BCQEWGEFzcm9ja190
c2RAYXNyb2NrLmNvbS50d4IJAP3yVcAKv0C9MBMGA1UdJQQMMAoGCCsGAQUFBwMB
MAsGA1UdDwQEAwIFoDANBgkqhkiG9w0BAQsFAAOBgQAibDjfoiltcxiVdqVxIkut
zy0kvGSPAkTJDnbacUQaU6ZpY/kIVA+oeRd7vOcuLS5E4Dk70FOYOY4SayfSx+Or
o9xIyH7nLdWpoZvMOJU73QDUnrodhj5zwTe7bPI0xC6tF1cYSBkivYeT0QZyz2+m
zMUBJNZ1JYRYFW8klyxZ5w==
-----END CERTIFICATE-----
