Certificate:
    Data:
        Version: 3 (0x2)
        Serial Number: 1 (0x1)
    Signature Algorithm: sha256WithRSAEncryption
        Issuer: C=TW, ST=TW, L=Taipei, O=ASRock Incorporation, OU=ASRock X10, CN=X10 IoT Router/name=OpenVPN/emailAddress=Asrock_tsd@asrock.com.tw
        Validity
            Not Before: Jul 12 02:20:45 2016 GMT
            Not After : Jul 10 02:20:45 2026 GMT
        Subject: C=TW, ST=TW, L=Taipei, O=ASRock Incorporation, OU=ASRock X10, CN=server/name=OpenVPN/emailAddress=Asrock_tsd@asrock.com.tw
        Subject Public Key Info:
            Public Key Algorithm: rsaEncryption
                Public-Key: (1024 bit)
                Modulus:
                    00:e1:ef:85:3e:4d:94:ae:0b:65:04:17:49:04:28:
                    26:83:03:fd:31:35:d9:ec:40:e5:1c:70:55:9b:6e:
                    55:16:68:aa:39:e3:8b:3e:2d:99:df:03:98:ed:4b:
                    70:6f:d2:c9:2d:cd:54:6f:74:d2:72:a4:69:ab:f2:
                    8c:01:f3:47:ef:6c:04:d9:3d:ba:e4:c7:48:c1:46:
                    da:8d:66:58:5c:d4:4d:b0:7d:0a:84:b4:d2:99:3d:
                    8a:ef:5e:09:1f:da:03:88:e1:a2:ad:14:96:a0:37:
                    fe:1b:af:a4:68:f3:52:25:e3:92:52:60:cc:5d:ff:
                    f2:64:fb:c6:17:68:d5:7d:7f
                Exponent: 65537 (0x10001)
        X509v3 extensions:
            X509v3 Basic Constraints: 
                CA:FALSE
            Netscape Cert Type: 
                SSL Server
            Netscape Comment: 
                Easy-RSA Generated Server Certificate
            X509v3 Subject Key Identifier: 
                8C:C4:41:3F:3B:57:40:1E:17:1D:20:3B:E8:21:21:84:1E:73:56:88
            X509v3 Authority Key Identifier: 
                keyid:A8:C9:6A:2A:28:13:87:10:15:AA:C1:42:B1:D7:A9:0F:E0:94:60:78
                DirName:/C=TW/ST=TW/L=Taipei/O=ASRock Incorporation/OU=ASRock X10/CN=X10 IoT Router/name=OpenVPN/emailAddress=Asrock_tsd@asrock.com.tw
                serial:C2:9E:7C:E3:77:3A:94:B7

            X509v3 Extended Key Usage: 
                TLS Web Server Authentication
            X509v3 Key Usage: 
                Digital Signature, Key Encipherment
    Signature Algorithm: sha256WithRSAEncryption
         47:bd:ec:99:33:ee:79:1c:89:17:81:97:8b:c4:66:67:a1:bf:
         18:eb:c5:50:fd:f5:8e:80:24:13:40:63:9b:93:05:87:a7:bf:
         0c:7c:d0:92:36:b6:00:77:01:cd:6a:5e:35:80:de:69:49:b2:
         80:67:69:05:67:3c:ba:b5:10:84:8b:ab:ed:62:a4:12:01:61:
         0e:8f:30:ff:96:b6:5d:a3:8c:cb:57:12:5d:8a:04:b7:d8:11:
         b9:d4:95:57:83:76:56:0e:48:b2:a8:12:b3:b9:bf:ea:36:7c:
         4e:18:70:6b:5e:0b:94:e2:52:18:b9:bf:19:81:59:31:8d:2b:
         93:51
-----BEGIN CERTIFICATE-----
MIIEXDCCA8WgAwIBAgIBATANBgkqhkiG9w0BAQsFADCBszELMAkGA1UEBhMCVFcx
CzAJBgNVBAgTAlRXMQ8wDQYDVQQHEwZUYWlwZWkxHTAbBgNVBAoTFEFTUm9jayBJ
bmNvcnBvcmF0aW9uMRMwEQYDVQQLEwpBU1JvY2sgWDEwMRcwFQYDVQQDEw5YMTAg
SW9UIFJvdXRlcjEQMA4GA1UEKRMHT3BlblZQTjEnMCUGCSqGSIb3DQEJARYYQXNy
b2NrX3RzZEBhc3JvY2suY29tLnR3MB4XDTE2MDcxMjAyMjA0NVoXDTI2MDcxMDAy
MjA0NVowgasxCzAJBgNVBAYTAlRXMQswCQYDVQQIEwJUVzEPMA0GA1UEBxMGVGFp
cGVpMR0wGwYDVQQKExRBU1JvY2sgSW5jb3Jwb3JhdGlvbjETMBEGA1UECxMKQVNS
b2NrIFgxMDEPMA0GA1UEAxMGc2VydmVyMRAwDgYDVQQpEwdPcGVuVlBOMScwJQYJ
KoZIhvcNAQkBFhhBc3JvY2tfdHNkQGFzcm9jay5jb20udHcwgZ8wDQYJKoZIhvcN
AQEBBQADgY0AMIGJAoGBAOHvhT5NlK4LZQQXSQQoJoMD/TE12exA5RxwVZtuVRZo
qjnjiz4tmd8DmO1LcG/SyS3NVG900nKkaavyjAHzR+9sBNk9uuTHSMFG2o1mWFzU
TbB9CoS00pk9iu9eCR/aA4jhoq0UlqA3/huvpGjzUiXjklJgzF3/8mT7xhdo1X1/
AgMBAAGjggGEMIIBgDAJBgNVHRMEAjAAMBEGCWCGSAGG+EIBAQQEAwIGQDA0Bglg
hkgBhvhCAQ0EJxYlRWFzeS1SU0EgR2VuZXJhdGVkIFNlcnZlciBDZXJ0aWZpY2F0
ZTAdBgNVHQ4EFgQUjMRBPztXQB4XHSA76CEhhB5zVogwgegGA1UdIwSB4DCB3YAU
qMlqKigThxAVqsFCsdepD+CUYHihgbmkgbYwgbMxCzAJBgNVBAYTAlRXMQswCQYD
VQQIEwJUVzEPMA0GA1UEBxMGVGFpcGVpMR0wGwYDVQQKExRBU1JvY2sgSW5jb3Jw
b3JhdGlvbjETMBEGA1UECxMKQVNSb2NrIFgxMDEXMBUGA1UEAxMOWDEwIElvVCBS
b3V0ZXIxEDAOBgNVBCkTB09wZW5WUE4xJzAlBgkqhkiG9w0BCQEWGEFzcm9ja190
c2RAYXNyb2NrLmNvbS50d4IJAMKefON3OpS3MBMGA1UdJQQMMAoGCCsGAQUFBwMB
MAsGA1UdDwQEAwIFoDANBgkqhkiG9w0BAQsFAAOBgQBHveyZM+55HIkXgZeLxGZn
ob8Y68VQ/fWOgCQTQGObkwWHp78MfNCSNrYAdwHNal41gN5pSbKAZ2kFZzy6tRCE
i6vtYqQSAWEOjzD/lrZdo4zLVxJdigS32BG51JVXg3ZWDkiyqBKzub/qNnxOGHBr
XguU4lIYub8ZgVkxjSuTUQ==
-----END CERTIFICATE-----
