Certificate:
    Data:
        Version: 3 (0x2)
        Serial Number: 1 (0x1)
    Signature Algorithm: sha256WithRSAEncryption
        Issuer: C=TW, ST=TW, L=Taipei, O=ASRock Incorporation, OU=ASRock X10, CN=X10 IoT Router/name=OpenVPN/emailAddress=Asrock_tsd@asrock.com.tw
        Validity
            Not Before: Jun 21 07:10:40 2016 GMT
            Not After : Jun 19 07:10:40 2026 GMT
        Subject: C=TW, ST=TW, L=Taipei, O=ASRock Incorporation, OU=ASRock X10, CN=server/name=OpenVPN/emailAddress=Asrock_tsd@asrock.com.tw
        Subject Public Key Info:
            Public Key Algorithm: rsaEncryption
                Public-Key: (1024 bit)
                Modulus:
                    00:c8:e7:ed:7b:c6:9e:2c:00:99:0e:d7:89:11:6d:
                    aa:e5:6d:e9:aa:1b:7f:1b:cd:30:2c:7d:95:fc:39:
                    c5:47:ee:26:d7:c9:32:19:15:91:b4:9e:81:61:7a:
                    97:a8:c6:b5:5d:13:a8:55:88:66:da:3f:a5:30:8b:
                    5d:06:14:a5:b5:34:22:cb:7e:e8:c8:a6:8d:45:66:
                    cd:01:69:44:aa:4a:09:6f:a8:f3:9a:e8:6c:96:ca:
                    1d:e1:b5:81:95:0b:a5:40:61:2e:66:20:17:ff:71:
                    17:0e:43:8f:37:17:d3:0c:6b:51:5b:3e:ba:48:04:
                    6e:bd:7f:bc:7e:74:ff:5e:85
                Exponent: 65537 (0x10001)
        X509v3 extensions:
            X509v3 Basic Constraints: 
                CA:FALSE
            Netscape Cert Type: 
                SSL Server
            Netscape Comment: 
                Easy-RSA Generated Server Certificate
            X509v3 Subject Key Identifier: 
                30:E1:C9:F7:D0:6C:78:26:A0:D8:6C:94:C6:ED:5B:A2:15:7C:D5:75
            X509v3 Authority Key Identifier: 
                keyid:B1:93:C6:4A:93:64:FD:AD:79:17:8A:A6:50:EE:83:EB:44:32:79:04
                DirName:/C=TW/ST=TW/L=Taipei/O=ASRock Incorporation/OU=ASRock X10/CN=X10 IoT Router/name=OpenVPN/emailAddress=Asrock_tsd@asrock.com.tw
                serial:81:04:8F:23:AB:3A:B7:46

            X509v3 Extended Key Usage: 
                TLS Web Server Authentication
            X509v3 Key Usage: 
                Digital Signature, Key Encipherment
    Signature Algorithm: sha256WithRSAEncryption
         d8:25:76:79:fb:f6:45:af:8b:76:69:36:d9:de:98:76:dc:f6:
         47:a7:7c:95:d7:67:e7:e3:20:db:50:14:08:fa:5a:8f:aa:20:
         f5:75:8e:6e:fa:f3:98:a5:be:fb:fb:0f:da:91:27:b1:90:68:
         e7:98:47:bc:f5:9d:4a:86:10:7e:ea:f7:8e:4a:f4:40:f8:47:
         46:5a:c6:4b:b7:e5:5d:b8:17:dd:ba:96:86:93:28:03:f2:0b:
         7a:ab:e5:66:ee:70:46:7d:2c:46:49:10:10:8a:eb:de:b7:02:
         10:41:82:75:89:5b:64:5a:d5:3d:f3:c3:be:95:96:07:26:91:
         42:d6
-----BEGIN CERTIFICATE-----
MIIEXDCCA8WgAwIBAgIBATANBgkqhkiG9w0BAQsFADCBszELMAkGA1UEBhMCVFcx
CzAJBgNVBAgTAlRXMQ8wDQYDVQQHEwZUYWlwZWkxHTAbBgNVBAoTFEFTUm9jayBJ
bmNvcnBvcmF0aW9uMRMwEQYDVQQLEwpBU1JvY2sgWDEwMRcwFQYDVQQDEw5YMTAg
SW9UIFJvdXRlcjEQMA4GA1UEKRMHT3BlblZQTjEnMCUGCSqGSIb3DQEJARYYQXNy
b2NrX3RzZEBhc3JvY2suY29tLnR3MB4XDTE2MDYyMTA3MTA0MFoXDTI2MDYxOTA3
MTA0MFowgasxCzAJBgNVBAYTAlRXMQswCQYDVQQIEwJUVzEPMA0GA1UEBxMGVGFp
cGVpMR0wGwYDVQQKExRBU1JvY2sgSW5jb3Jwb3JhdGlvbjETMBEGA1UECxMKQVNS
b2NrIFgxMDEPMA0GA1UEAxMGc2VydmVyMRAwDgYDVQQpEwdPcGVuVlBOMScwJQYJ
KoZIhvcNAQkBFhhBc3JvY2tfdHNkQGFzcm9jay5jb20udHcwgZ8wDQYJKoZIhvcN
AQEBBQADgY0AMIGJAoGBAMjn7XvGniwAmQ7XiRFtquVt6aobfxvNMCx9lfw5xUfu
JtfJMhkVkbSegWF6l6jGtV0TqFWIZto/pTCLXQYUpbU0Ist+6MimjUVmzQFpRKpK
CW+o85robJbKHeG1gZULpUBhLmYgF/9xFw5DjzcX0wxrUVs+ukgEbr1/vH50/16F
AgMBAAGjggGEMIIBgDAJBgNVHRMEAjAAMBEGCWCGSAGG+EIBAQQEAwIGQDA0Bglg
hkgBhvhCAQ0EJxYlRWFzeS1SU0EgR2VuZXJhdGVkIFNlcnZlciBDZXJ0aWZpY2F0
ZTAdBgNVHQ4EFgQUMOHJ99BseCag2GyUxu1bohV81XUwgegGA1UdIwSB4DCB3YAU
sZPGSpNk/a15F4qmUO6D60QyeQShgbmkgbYwgbMxCzAJBgNVBAYTAlRXMQswCQYD
VQQIEwJUVzEPMA0GA1UEBxMGVGFpcGVpMR0wGwYDVQQKExRBU1JvY2sgSW5jb3Jw
b3JhdGlvbjETMBEGA1UECxMKQVNSb2NrIFgxMDEXMBUGA1UEAxMOWDEwIElvVCBS
b3V0ZXIxEDAOBgNVBCkTB09wZW5WUE4xJzAlBgkqhkiG9w0BCQEWGEFzcm9ja190
c2RAYXNyb2NrLmNvbS50d4IJAIEEjyOrOrdGMBMGA1UdJQQMMAoGCCsGAQUFBwMB
MAsGA1UdDwQEAwIFoDANBgkqhkiG9w0BAQsFAAOBgQDYJXZ5+/ZFr4t2aTbZ3ph2
3PZHp3yV12fn4yDbUBQI+lqPqiD1dY5u+vOYpb77+w/akSexkGjnmEe89Z1KhhB+
6veOSvRA+EdGWsZLt+VduBfdupaGkygD8gt6q+Vm7nBGfSxGSRAQiuvetwIQQYJ1
iVtkWtU988O+lZYHJpFC1g==
-----END CERTIFICATE-----
