Certificate:
    Data:
        Version: 3 (0x2)
        Serial Number: 1 (0x1)
    Signature Algorithm: sha256WithRSAEncryption
        Issuer: C=TW, ST=TW, L=Taipei, O=ASRock Incorporation, OU=ASRock X10, CN=X10 IoT Router/name=OpenVPN/emailAddress=Asrock_tsd@asrock.com.tw
        Validity
            Not Before: Jun 20 06:48:46 2016 GMT
            Not After : Jun 18 06:48:46 2026 GMT
        Subject: C=TW, ST=TW, L=Taipei, O=ASRock Incorporation, OU=ASRock X10, CN=server/name=OpenVPN/emailAddress=Asrock_tsd@asrock.com.tw
        Subject Public Key Info:
            Public Key Algorithm: rsaEncryption
                Public-Key: (1024 bit)
                Modulus:
                    00:aa:b7:07:44:15:82:f0:8b:db:8d:09:a6:9c:0d:
                    a0:c3:70:c3:cd:b2:f0:24:b6:fc:90:a4:6f:ad:08:
                    24:33:d7:9f:9a:f3:ad:39:0f:87:67:8a:5b:b0:15:
                    2f:e5:dd:4a:b6:2a:e0:68:c1:83:11:4e:64:29:23:
                    1b:de:4f:f1:72:e7:68:4c:2e:60:98:6a:ce:f0:8c:
                    98:a7:30:02:f1:ff:79:ab:be:c6:3d:62:e3:20:7d:
                    ac:43:e7:72:ea:25:d2:d7:8a:09:91:7d:d2:a6:47:
                    fc:98:68:78:4c:c4:6a:ae:72:b6:75:cb:a2:9c:f7:
                    1a:8d:1c:7b:46:38:87:36:0b
                Exponent: 65537 (0x10001)
        X509v3 extensions:
            X509v3 Basic Constraints: 
                CA:FALSE
            Netscape Cert Type: 
                SSL Server
            Netscape Comment: 
                Easy-RSA Generated Server Certificate
            X509v3 Subject Key Identifier: 
                2D:5C:B6:08:46:59:E3:29:8A:A8:AA:48:2F:55:B4:AA:0B:3D:F9:48
            X509v3 Authority Key Identifier: 
                keyid:95:2D:B3:BC:84:E7:0C:ED:65:83:6C:4E:11:CB:E8:90:A7:1F:C4:14
                DirName:/C=TW/ST=TW/L=Taipei/O=ASRock Incorporation/OU=ASRock X10/CN=X10 IoT Router/name=OpenVPN/emailAddress=Asrock_tsd@asrock.com.tw
                serial:AE:F0:33:49:85:0D:D3:54

            X509v3 Extended Key Usage: 
                TLS Web Server Authentication
            X509v3 Key Usage: 
                Digital Signature, Key Encipherment
    Signature Algorithm: sha256WithRSAEncryption
         75:70:9f:91:22:ed:0f:fd:74:64:75:35:03:1d:fd:c0:9d:a6:
         cc:12:48:82:a6:ae:be:2c:60:6a:bb:90:07:f2:9c:db:ef:57:
         75:82:e8:0a:81:4e:02:1c:33:29:da:e4:eb:a1:94:88:50:f4:
         61:9a:61:db:7f:24:a7:2c:d3:49:36:cd:2a:62:13:e2:c9:04:
         11:00:51:21:34:a1:25:dc:09:ae:fb:65:cb:c1:0b:43:c1:63:
         c1:af:e8:28:a6:40:ba:b8:cf:25:ed:37:46:9b:f7:45:b2:96:
         63:a9:76:85:98:67:24:5f:19:56:0d:64:6d:f4:b1:cc:74:ae:
         00:ab
-----BEGIN CERTIFICATE-----
MIIEXDCCA8WgAwIBAgIBATANBgkqhkiG9w0BAQsFADCBszELMAkGA1UEBhMCVFcx
CzAJBgNVBAgTAlRXMQ8wDQYDVQQHEwZUYWlwZWkxHTAbBgNVBAoTFEFTUm9jayBJ
bmNvcnBvcmF0aW9uMRMwEQYDVQQLEwpBU1JvY2sgWDEwMRcwFQYDVQQDEw5YMTAg
SW9UIFJvdXRlcjEQMA4GA1UEKRMHT3BlblZQTjEnMCUGCSqGSIb3DQEJARYYQXNy
b2NrX3RzZEBhc3JvY2suY29tLnR3MB4XDTE2MDYyMDA2NDg0NloXDTI2MDYxODA2
NDg0NlowgasxCzAJBgNVBAYTAlRXMQswCQYDVQQIEwJUVzEPMA0GA1UEBxMGVGFp
cGVpMR0wGwYDVQQKExRBU1JvY2sgSW5jb3Jwb3JhdGlvbjETMBEGA1UECxMKQVNS
b2NrIFgxMDEPMA0GA1UEAxMGc2VydmVyMRAwDgYDVQQpEwdPcGVuVlBOMScwJQYJ
KoZIhvcNAQkBFhhBc3JvY2tfdHNkQGFzcm9jay5jb20udHcwgZ8wDQYJKoZIhvcN
AQEBBQADgY0AMIGJAoGBAKq3B0QVgvCL240JppwNoMNww82y8CS2/JCkb60IJDPX
n5rzrTkPh2eKW7AVL+XdSrYq4GjBgxFOZCkjG95P8XLnaEwuYJhqzvCMmKcwAvH/
eau+xj1i4yB9rEPncuol0teKCZF90qZH/JhoeEzEaq5ytnXLopz3Go0ce0Y4hzYL
AgMBAAGjggGEMIIBgDAJBgNVHRMEAjAAMBEGCWCGSAGG+EIBAQQEAwIGQDA0Bglg
hkgBhvhCAQ0EJxYlRWFzeS1SU0EgR2VuZXJhdGVkIFNlcnZlciBDZXJ0aWZpY2F0
ZTAdBgNVHQ4EFgQULVy2CEZZ4ymKqKpIL1W0qgs9+UgwgegGA1UdIwSB4DCB3YAU
lS2zvITnDO1lg2xOEcvokKcfxBShgbmkgbYwgbMxCzAJBgNVBAYTAlRXMQswCQYD
VQQIEwJUVzEPMA0GA1UEBxMGVGFpcGVpMR0wGwYDVQQKExRBU1JvY2sgSW5jb3Jw
b3JhdGlvbjETMBEGA1UECxMKQVNSb2NrIFgxMDEXMBUGA1UEAxMOWDEwIElvVCBS
b3V0ZXIxEDAOBgNVBCkTB09wZW5WUE4xJzAlBgkqhkiG9w0BCQEWGEFzcm9ja190
c2RAYXNyb2NrLmNvbS50d4IJAK7wM0mFDdNUMBMGA1UdJQQMMAoGCCsGAQUFBwMB
MAsGA1UdDwQEAwIFoDANBgkqhkiG9w0BAQsFAAOBgQB1cJ+RIu0P/XRkdTUDHf3A
nabMEkiCpq6+LGBqu5AH8pzb71d1gugKgU4CHDMp2uTroZSIUPRhmmHbfySnLNNJ
Ns0qYhPiyQQRAFEhNKEl3Amu+2XLwQtDwWPBr+gopkC6uM8l7TdGm/dFspZjqXaF
mGckXxlWDWRt9LHMdK4Aqw==
-----END CERTIFICATE-----
