Certificate:
    Data:
        Version: 3 (0x2)
        Serial Number: 1 (0x1)
    Signature Algorithm: sha256WithRSAEncryption
        Issuer: C=TW, ST=TW, L=Taipei, O=ASRock Incorporation, OU=ASRock X10, CN=X10 IoT Router/name=OpenVPN/emailAddress=Asrock_tsd@asrock.com.tw
        Validity
            Not Before: Jun 28 02:51:47 2016 GMT
            Not After : Jun 26 02:51:47 2026 GMT
        Subject: C=TW, ST=TW, L=Taipei, O=ASRock Incorporation, OU=ASRock X10, CN=server/name=OpenVPN/emailAddress=Asrock_tsd@asrock.com.tw
        Subject Public Key Info:
            Public Key Algorithm: rsaEncryption
                Public-Key: (1024 bit)
                Modulus:
                    00:bb:bf:a4:a2:22:e9:81:2b:9d:04:a7:e8:94:fe:
                    4c:5b:8e:01:31:bc:8d:68:a5:73:0a:09:f7:6e:61:
                    9a:a3:a6:ca:1e:e6:95:c7:45:1d:ee:61:d1:2e:2b:
                    9f:28:b1:9c:60:69:b3:a3:12:bf:1f:6d:ee:65:d4:
                    af:cf:9c:4b:4d:5b:8b:ae:95:cb:e1:65:d3:3f:ce:
                    c8:f4:e2:1a:13:6d:0f:5a:71:fb:1f:4c:30:39:9a:
                    53:84:6e:9f:04:d4:60:98:72:65:50:6b:11:db:6b:
                    b4:40:a1:d0:04:13:4d:4d:8a:25:07:eb:69:ac:9a:
                    7b:9a:f2:a0:e6:9f:18:db:3b
                Exponent: 65537 (0x10001)
        X509v3 extensions:
            X509v3 Basic Constraints: 
                CA:FALSE
            Netscape Cert Type: 
                SSL Server
            Netscape Comment: 
                Easy-RSA Generated Server Certificate
            X509v3 Subject Key Identifier: 
                FB:D2:46:6B:4B:23:3B:21:E2:48:5F:EB:27:45:B8:0B:A2:69:68:1D
            X509v3 Authority Key Identifier: 
                keyid:B4:50:7E:2E:36:96:DD:F0:75:96:2C:00:17:1F:3C:06:8F:F4:5D:5F
                DirName:/C=TW/ST=TW/L=Taipei/O=ASRock Incorporation/OU=ASRock X10/CN=X10 IoT Router/name=OpenVPN/emailAddress=Asrock_tsd@asrock.com.tw
                serial:94:3F:6D:E3:B7:56:30:41

            X509v3 Extended Key Usage: 
                TLS Web Server Authentication
            X509v3 Key Usage: 
                Digital Signature, Key Encipherment
    Signature Algorithm: sha256WithRSAEncryption
         8d:18:c3:6e:fd:2c:92:d7:54:fd:b8:10:7e:01:57:f0:d8:9a:
         06:32:4a:73:7d:b6:c5:19:9c:c1:4a:c6:7c:a2:89:71:c6:e1:
         e4:0b:ee:1e:5a:9f:c6:ff:45:39:db:23:24:a3:8c:a5:d0:dc:
         b3:d6:64:55:e5:b2:a4:e7:91:41:ea:b6:5b:6e:4e:92:5c:2c:
         ed:00:22:3c:94:f6:62:cd:f2:56:f4:45:34:d5:44:76:99:1c:
         36:af:e8:1f:fb:1e:af:66:19:c1:92:8d:3e:26:f4:29:9f:71:
         84:f6:f1:df:a1:3c:21:9b:f8:ff:01:da:2a:ae:97:7e:e7:2e:
         2d:bd
-----BEGIN CERTIFICATE-----
MIIEXDCCA8WgAwIBAgIBATANBgkqhkiG9w0BAQsFADCBszELMAkGA1UEBhMCVFcx
CzAJBgNVBAgTAlRXMQ8wDQYDVQQHEwZUYWlwZWkxHTAbBgNVBAoTFEFTUm9jayBJ
bmNvcnBvcmF0aW9uMRMwEQYDVQQLEwpBU1JvY2sgWDEwMRcwFQYDVQQDEw5YMTAg
SW9UIFJvdXRlcjEQMA4GA1UEKRMHT3BlblZQTjEnMCUGCSqGSIb3DQEJARYYQXNy
b2NrX3RzZEBhc3JvY2suY29tLnR3MB4XDTE2MDYyODAyNTE0N1oXDTI2MDYyNjAy
NTE0N1owgasxCzAJBgNVBAYTAlRXMQswCQYDVQQIEwJUVzEPMA0GA1UEBxMGVGFp
cGVpMR0wGwYDVQQKExRBU1JvY2sgSW5jb3Jwb3JhdGlvbjETMBEGA1UECxMKQVNS
b2NrIFgxMDEPMA0GA1UEAxMGc2VydmVyMRAwDgYDVQQpEwdPcGVuVlBOMScwJQYJ
KoZIhvcNAQkBFhhBc3JvY2tfdHNkQGFzcm9jay5jb20udHcwgZ8wDQYJKoZIhvcN
AQEBBQADgY0AMIGJAoGBALu/pKIi6YErnQSn6JT+TFuOATG8jWilcwoJ925hmqOm
yh7mlcdFHe5h0S4rnyixnGBps6MSvx9t7mXUr8+cS01bi66Vy+Fl0z/OyPTiGhNt
D1px+x9MMDmaU4RunwTUYJhyZVBrEdtrtECh0AQTTU2KJQfraayae5ryoOafGNs7
AgMBAAGjggGEMIIBgDAJBgNVHRMEAjAAMBEGCWCGSAGG+EIBAQQEAwIGQDA0Bglg
hkgBhvhCAQ0EJxYlRWFzeS1SU0EgR2VuZXJhdGVkIFNlcnZlciBDZXJ0aWZpY2F0
ZTAdBgNVHQ4EFgQU+9JGa0sjOyHiSF/rJ0W4C6JpaB0wgegGA1UdIwSB4DCB3YAU
tFB+LjaW3fB1liwAFx88Bo/0XV+hgbmkgbYwgbMxCzAJBgNVBAYTAlRXMQswCQYD
VQQIEwJUVzEPMA0GA1UEBxMGVGFpcGVpMR0wGwYDVQQKExRBU1JvY2sgSW5jb3Jw
b3JhdGlvbjETMBEGA1UECxMKQVNSb2NrIFgxMDEXMBUGA1UEAxMOWDEwIElvVCBS
b3V0ZXIxEDAOBgNVBCkTB09wZW5WUE4xJzAlBgkqhkiG9w0BCQEWGEFzcm9ja190
c2RAYXNyb2NrLmNvbS50d4IJAJQ/beO3VjBBMBMGA1UdJQQMMAoGCCsGAQUFBwMB
MAsGA1UdDwQEAwIFoDANBgkqhkiG9w0BAQsFAAOBgQCNGMNu/SyS11T9uBB+AVfw
2JoGMkpzfbbFGZzBSsZ8oolxxuHkC+4eWp/G/0U52yMko4yl0Nyz1mRV5bKk55FB
6rZbbk6SXCztACI8lPZizfJW9EU01UR2mRw2r+gf+x6vZhnBko0+JvQpn3GE9vHf
oTwhm/j/Adoqrpd+5y4tvQ==
-----END CERTIFICATE-----
