Certificate:
    Data:
        Version: 3 (0x2)
        Serial Number: 1 (0x1)
    Signature Algorithm: sha256WithRSAEncryption
        Issuer: C=TW, ST=TW, L=Taipei, O=ASRock Incorporation, OU=ASRock X10, CN=X10 IoT Router/name=OpenVPN/emailAddress=Asrock_tsd@asrock.com.tw
        Validity
            Not Before: Jun 22 03:00:11 2016 GMT
            Not After : Jun 20 03:00:11 2026 GMT
        Subject: C=TW, ST=TW, L=Taipei, O=ASRock Incorporation, OU=ASRock X10, CN=server/name=OpenVPN/emailAddress=Asrock_tsd@asrock.com.tw
        Subject Public Key Info:
            Public Key Algorithm: rsaEncryption
                Public-Key: (1024 bit)
                Modulus:
                    00:cc:00:1e:08:56:46:fc:50:33:27:a0:10:4c:a0:
                    dc:17:71:6f:2d:e9:38:83:b5:c0:04:ae:fe:01:57:
                    70:0b:21:24:46:40:cb:3e:02:ec:76:b3:af:e6:f6:
                    6a:78:4f:d3:01:28:83:b5:93:02:77:77:94:50:9d:
                    4e:2c:2b:91:8a:5a:00:86:d8:16:02:26:a4:37:ad:
                    87:1d:6e:da:9f:3d:0e:28:e1:e3:6b:21:9b:42:08:
                    89:1f:f6:d6:54:2d:9c:78:e1:a0:9f:2c:c0:95:4c:
                    19:67:bd:38:f1:51:57:0f:dc:f8:75:af:1f:12:53:
                    78:aa:8f:c1:19:d3:db:44:d9
                Exponent: 65537 (0x10001)
        X509v3 extensions:
            X509v3 Basic Constraints: 
                CA:FALSE
            Netscape Cert Type: 
                SSL Server
            Netscape Comment: 
                Easy-RSA Generated Server Certificate
            X509v3 Subject Key Identifier: 
                8D:86:C5:B3:21:E3:6B:7A:4F:EF:50:19:1D:79:0A:5C:C9:5D:D7:41
            X509v3 Authority Key Identifier: 
                keyid:8D:C1:D6:E3:E5:12:44:57:3A:D3:FD:D2:BD:3B:04:A9:97:22:25:05
                DirName:/C=TW/ST=TW/L=Taipei/O=ASRock Incorporation/OU=ASRock X10/CN=X10 IoT Router/name=OpenVPN/emailAddress=Asrock_tsd@asrock.com.tw
                serial:96:F5:C7:DF:4D:7B:B9:A1

            X509v3 Extended Key Usage: 
                TLS Web Server Authentication
            X509v3 Key Usage: 
                Digital Signature, Key Encipherment
    Signature Algorithm: sha256WithRSAEncryption
         32:f8:84:68:44:20:44:55:40:9a:1b:cb:79:73:66:32:c2:a5:
         11:6e:3b:8f:eb:7f:4c:bd:b8:c8:f1:e4:23:15:0b:49:cd:4b:
         f0:9f:14:0d:13:c7:93:3f:31:9c:7e:9b:5f:64:83:0d:60:cd:
         34:ae:c6:e7:9f:ca:bd:12:d1:f5:05:1a:19:a2:c3:4e:76:df:
         96:6e:df:67:9b:64:cf:d1:d9:cb:a2:65:f1:50:5a:a0:8d:bc:
         37:f0:da:18:f4:34:d8:08:1a:08:2a:0d:35:f7:a3:00:ca:72:
         26:6b:bc:31:43:b4:79:19:03:26:4d:7a:7f:e0:f7:03:34:79:
         b5:39
-----BEGIN CERTIFICATE-----
MIIEXDCCA8WgAwIBAgIBATANBgkqhkiG9w0BAQsFADCBszELMAkGA1UEBhMCVFcx
CzAJBgNVBAgTAlRXMQ8wDQYDVQQHEwZUYWlwZWkxHTAbBgNVBAoTFEFTUm9jayBJ
bmNvcnBvcmF0aW9uMRMwEQYDVQQLEwpBU1JvY2sgWDEwMRcwFQYDVQQDEw5YMTAg
SW9UIFJvdXRlcjEQMA4GA1UEKRMHT3BlblZQTjEnMCUGCSqGSIb3DQEJARYYQXNy
b2NrX3RzZEBhc3JvY2suY29tLnR3MB4XDTE2MDYyMjAzMDAxMVoXDTI2MDYyMDAz
MDAxMVowgasxCzAJBgNVBAYTAlRXMQswCQYDVQQIEwJUVzEPMA0GA1UEBxMGVGFp
cGVpMR0wGwYDVQQKExRBU1JvY2sgSW5jb3Jwb3JhdGlvbjETMBEGA1UECxMKQVNS
b2NrIFgxMDEPMA0GA1UEAxMGc2VydmVyMRAwDgYDVQQpEwdPcGVuVlBOMScwJQYJ
KoZIhvcNAQkBFhhBc3JvY2tfdHNkQGFzcm9jay5jb20udHcwgZ8wDQYJKoZIhvcN
AQEBBQADgY0AMIGJAoGBAMwAHghWRvxQMyegEEyg3Bdxby3pOIO1wASu/gFXcAsh
JEZAyz4C7Hazr+b2anhP0wEog7WTAnd3lFCdTiwrkYpaAIbYFgImpDethx1u2p89
Dijh42shm0IIiR/21lQtnHjhoJ8swJVMGWe9OPFRVw/c+HWvHxJTeKqPwRnT20TZ
AgMBAAGjggGEMIIBgDAJBgNVHRMEAjAAMBEGCWCGSAGG+EIBAQQEAwIGQDA0Bglg
hkgBhvhCAQ0EJxYlRWFzeS1SU0EgR2VuZXJhdGVkIFNlcnZlciBDZXJ0aWZpY2F0
ZTAdBgNVHQ4EFgQUjYbFsyHja3pP71AZHXkKXMld10EwgegGA1UdIwSB4DCB3YAU
jcHW4+USRFc60/3SvTsEqZciJQWhgbmkgbYwgbMxCzAJBgNVBAYTAlRXMQswCQYD
VQQIEwJUVzEPMA0GA1UEBxMGVGFpcGVpMR0wGwYDVQQKExRBU1JvY2sgSW5jb3Jw
b3JhdGlvbjETMBEGA1UECxMKQVNSb2NrIFgxMDEXMBUGA1UEAxMOWDEwIElvVCBS
b3V0ZXIxEDAOBgNVBCkTB09wZW5WUE4xJzAlBgkqhkiG9w0BCQEWGEFzcm9ja190
c2RAYXNyb2NrLmNvbS50d4IJAJb1x99Ne7mhMBMGA1UdJQQMMAoGCCsGAQUFBwMB
MAsGA1UdDwQEAwIFoDANBgkqhkiG9w0BAQsFAAOBgQAy+IRoRCBEVUCaG8t5c2Yy
wqURbjuP639MvbjI8eQjFQtJzUvwnxQNE8eTPzGcfptfZIMNYM00rsbnn8q9EtH1
BRoZosNOdt+Wbt9nm2TP0dnLomXxUFqgjbw38NoY9DTYCBoIKg0196MAynIma7wx
Q7R5GQMmTXp/4PcDNHm1OQ==
-----END CERTIFICATE-----
