Certificate:
    Data:
        Version: 3 (0x2)
        Serial Number: 1 (0x1)
    Signature Algorithm: sha256WithRSAEncryption
        Issuer: C=TW, ST=TW, L=Taipei, O=ASRock Incorporation, OU=ASRock X10, CN=X10 IoT Router/name=OpenVPN/emailAddress=Asrock_tsd@asrock.com.tw
        Validity
            Not Before: Jul  6 03:29:03 2016 GMT
            Not After : Jul  4 03:29:03 2026 GMT
        Subject: C=TW, ST=TW, L=Taipei, O=ASRock Incorporation, OU=ASRock X10, CN=server/name=OpenVPN/emailAddress=Asrock_tsd@asrock.com.tw
        Subject Public Key Info:
            Public Key Algorithm: rsaEncryption
                Public-Key: (1024 bit)
                Modulus:
                    00:c3:22:2b:65:f7:04:a7:3d:5c:a6:0f:59:79:e3:
                    03:f7:da:f6:4a:f0:60:9a:5e:39:99:6e:b5:f1:da:
                    74:c6:3f:a2:16:f5:f8:9f:22:53:1b:82:e2:cb:ee:
                    c8:10:6f:c8:f8:9d:89:12:16:d9:27:c9:e0:85:06:
                    59:56:5a:95:dd:d0:2b:7f:3d:4e:23:d7:43:20:d0:
                    cb:22:e6:5c:db:1a:77:88:77:45:9d:a9:be:ec:11:
                    3d:03:d5:0d:7d:8b:b2:5a:b5:5e:27:25:fe:66:bd:
                    c2:0a:c9:8f:68:3c:97:33:2d:5e:72:8a:0e:bb:43:
                    81:c8:4d:b7:e4:97:d5:40:f5
                Exponent: 65537 (0x10001)
        X509v3 extensions:
            X509v3 Basic Constraints: 
                CA:FALSE
            Netscape Cert Type: 
                SSL Server
            Netscape Comment: 
                Easy-RSA Generated Server Certificate
            X509v3 Subject Key Identifier: 
                0F:7C:91:A4:B8:B0:5C:52:E6:37:F2:E8:3E:EE:54:CF:D8:37:9C:59
            X509v3 Authority Key Identifier: 
                keyid:19:41:BB:35:24:3D:F9:F1:41:4D:48:19:D9:A2:96:05:BE:1F:76:74
                DirName:/C=TW/ST=TW/L=Taipei/O=ASRock Incorporation/OU=ASRock X10/CN=X10 IoT Router/name=OpenVPN/emailAddress=Asrock_tsd@asrock.com.tw
                serial:8C:9B:25:10:4A:99:F5:B8

            X509v3 Extended Key Usage: 
                TLS Web Server Authentication
            X509v3 Key Usage: 
                Digital Signature, Key Encipherment
    Signature Algorithm: sha256WithRSAEncryption
         70:f9:3b:cb:df:ef:75:9e:81:29:bf:89:db:ff:bb:4b:0c:87:
         98:22:2f:19:79:96:23:ab:ef:8a:66:26:a1:1e:69:27:53:4d:
         4f:62:8b:6a:c2:a8:d4:5f:31:16:a6:ad:7e:ea:ff:0c:0d:ff:
         df:b9:05:06:92:88:aa:bc:a4:e7:12:6d:01:45:c7:e9:3c:4b:
         71:5a:68:56:03:53:97:12:cd:f5:54:f6:1b:cf:7e:f1:9c:76:
         ed:62:14:37:7d:94:ab:84:b3:f8:ea:d1:fb:48:03:27:b2:d6:
         1e:5e:e6:d7:d2:2d:21:b4:c3:f4:56:19:35:0e:85:dd:c1:0a:
         f2:90
-----BEGIN CERTIFICATE-----
MIIEXDCCA8WgAwIBAgIBATANBgkqhkiG9w0BAQsFADCBszELMAkGA1UEBhMCVFcx
CzAJBgNVBAgTAlRXMQ8wDQYDVQQHEwZUYWlwZWkxHTAbBgNVBAoTFEFTUm9jayBJ
bmNvcnBvcmF0aW9uMRMwEQYDVQQLEwpBU1JvY2sgWDEwMRcwFQYDVQQDEw5YMTAg
SW9UIFJvdXRlcjEQMA4GA1UEKRMHT3BlblZQTjEnMCUGCSqGSIb3DQEJARYYQXNy
b2NrX3RzZEBhc3JvY2suY29tLnR3MB4XDTE2MDcwNjAzMjkwM1oXDTI2MDcwNDAz
MjkwM1owgasxCzAJBgNVBAYTAlRXMQswCQYDVQQIEwJUVzEPMA0GA1UEBxMGVGFp
cGVpMR0wGwYDVQQKExRBU1JvY2sgSW5jb3Jwb3JhdGlvbjETMBEGA1UECxMKQVNS
b2NrIFgxMDEPMA0GA1UEAxMGc2VydmVyMRAwDgYDVQQpEwdPcGVuVlBOMScwJQYJ
KoZIhvcNAQkBFhhBc3JvY2tfdHNkQGFzcm9jay5jb20udHcwgZ8wDQYJKoZIhvcN
AQEBBQADgY0AMIGJAoGBAMMiK2X3BKc9XKYPWXnjA/fa9krwYJpeOZlutfHadMY/
ohb1+J8iUxuC4svuyBBvyPidiRIW2SfJ4IUGWVZald3QK389TiPXQyDQyyLmXNsa
d4h3RZ2pvuwRPQPVDX2Lslq1Xicl/ma9wgrJj2g8lzMtXnKKDrtDgchNt+SX1UD1
AgMBAAGjggGEMIIBgDAJBgNVHRMEAjAAMBEGCWCGSAGG+EIBAQQEAwIGQDA0Bglg
hkgBhvhCAQ0EJxYlRWFzeS1SU0EgR2VuZXJhdGVkIFNlcnZlciBDZXJ0aWZpY2F0
ZTAdBgNVHQ4EFgQUD3yRpLiwXFLmN/LoPu5Uz9g3nFkwgegGA1UdIwSB4DCB3YAU
GUG7NSQ9+fFBTUgZ2aKWBb4fdnShgbmkgbYwgbMxCzAJBgNVBAYTAlRXMQswCQYD
VQQIEwJUVzEPMA0GA1UEBxMGVGFpcGVpMR0wGwYDVQQKExRBU1JvY2sgSW5jb3Jw
b3JhdGlvbjETMBEGA1UECxMKQVNSb2NrIFgxMDEXMBUGA1UEAxMOWDEwIElvVCBS
b3V0ZXIxEDAOBgNVBCkTB09wZW5WUE4xJzAlBgkqhkiG9w0BCQEWGEFzcm9ja190
c2RAYXNyb2NrLmNvbS50d4IJAIybJRBKmfW4MBMGA1UdJQQMMAoGCCsGAQUFBwMB
MAsGA1UdDwQEAwIFoDANBgkqhkiG9w0BAQsFAAOBgQBw+TvL3+91noEpv4nb/7tL
DIeYIi8ZeZYjq++KZiahHmknU01PYotqwqjUXzEWpq1+6v8MDf/fuQUGkoiqvKTn
Em0BRcfpPEtxWmhWA1OXEs31VPYbz37xnHbtYhQ3fZSrhLP46tH7SAMnstYeXubX
0i0htMP0Vhk1DoXdwQrykA==
-----END CERTIFICATE-----
